	.text
	.file	"llvm-link"
	.section	.rodata.cst4,"aM",@progbits,4
	.p2align	2               # -- Begin function ran
.LCPI0_0:
	.long	805306368               # float 4.65661287E-10
	.text
	.globl	ran
	.p2align	4, 0x90
	.type	ran,@function
ran:                                    # @ran
	.cfi_startproc
# %bb.0:                                # %entry
	movss	.LCPI0_0(%rip), %xmm0   # xmm0 = mem[0],zero,zero,zero
	movl	$127773, %eax           # imm = 0x1F31D
	movl	%eax, %ecx
	movl	$9999, -4(%rsp)         # imm = 0x270F
	movq	seedi, %rdx
	movl	$262, -4(%rsp)          # imm = 0x106
	movq	%rdx, %rax
	movq	%rdx, -16(%rsp)         # 8-byte Spill
	cqto
	idivq	%rcx
	movq	-16(%rsp), %rsi         # 8-byte Reload
	movq	%rax, -24(%rsp)         # 8-byte Spill
	movq	%rsi, %rax
	cqto
	idivq	%rcx
	imulq	$16807, %rdx, %rcx      # imm = 0x41A7
	movq	-24(%rsp), %rdx         # 8-byte Reload
	imulq	$-2836, %rdx, %rdx      # imm = 0xF4EC
	addq	%rdx, %rcx
	movq	%rcx, %rdx
	addq	$2147483647, %rdx       # imm = 0x7FFFFFFF
	cmpq	$0, %rcx
	cmovgq	%rcx, %rdx
	movq	%rdx, seedi
	movl	$264, -4(%rsp)          # imm = 0x108
	cvtsi2ssq	%rdx, %xmm1
	mulss	%xmm0, %xmm1
	cvtss2sd	%xmm1, %xmm0
	retq
.Lfunc_end0:
	.size	ran, .Lfunc_end0-ran
	.cfi_endproc
                                        # -- End function
	.globl	spec_init               # -- Begin function spec_init
	.p2align	4, 0x90
	.type	spec_init,@function
spec_init:                              # @spec_init
	.cfi_startproc
# %bb.0:                                # %entry
	subq	$264, %rsp              # imm = 0x108
	.cfi_def_cfa_offset 272
	movl	$9999, 260(%rsp)        # imm = 0x270F
	movl	dbglvl, %eax
	movl	$280, 260(%rsp)         # imm = 0x118
	cmpl	$3, %eax
	jle	.LBB1_2
# %bb.1:                                # %if.then
	movabsq	$.Lstr.34, %rdi
	callq	puts
	movl	%eax, 256(%rsp)         # 4-byte Spill
.LBB1_2:                                # %if.end
	movabsq	$spec_fd, %rax
	xorl	%esi, %esi
	movl	$16, %ecx
	movl	%ecx, %edx
	movl	spec_fd, %ecx
	movl	$289, 260(%rsp)         # imm = 0x121
	movq	%rax, %rdi
	movl	%ecx, 252(%rsp)         # 4-byte Spill
	callq	memset
	movl	252(%rsp), %ecx         # 4-byte Reload
	movl	%ecx, spec_fd
	movl	$297, 260(%rsp)         # imm = 0x129
	addl	$1048576, %ecx          # imm = 0x100000
	movslq	%ecx, %rdi
	callq	malloc
	movq	%rax, spec_fd+16
	movl	$309, 260(%rsp)         # imm = 0x135
	cmpq	$0, %rax
	movq	%rax, 240(%rsp)         # 8-byte Spill
	jne	.LBB1_4
.LBB1_3:                                # %if.then16
	movabsq	$.Lstr, %rdi
	callq	puts
	xorl	%edi, %edi
	movl	%eax, 236(%rsp)         # 4-byte Spill
	callq	exit
.LBB1_4:                                # %if.end18
	movl	252(%rsp), %eax         # 4-byte Reload
	cmpl	$0, %eax
	jle	.LBB1_12
# %bb.5:                                # %for.body22.lr.ph
	movq	240(%rsp), %rax         # 8-byte Reload
	movb	$0, (%rax)
	movl	$327, 260(%rsp)         # imm = 0x147
	movl	252(%rsp), %ecx         # 4-byte Reload
	cmpl	$1024, %ecx             # imm = 0x400
	jle	.LBB1_12
# %bb.6:                                # %for.body22.for.body22_crit_edge.preheader
	movl	$1024, %eax             # imm = 0x400
	movl	%eax, %ecx
	movl	252(%rsp), %eax         # 4-byte Reload
	movslq	%eax, %rdx
	addq	$-1025, %rdx            # imm = 0xFBFF
	movq	%rdx, %rsi
	shrq	$10, %rsi
	addq	$1, %rsi
	movq	%rsi, %rdi
	andq	$3, %rdi
	cmpq	$3072, %rdx             # imm = 0xC00
	movq	%rsi, 224(%rsp)         # 8-byte Spill
	movq	%rdi, 216(%rsp)         # 8-byte Spill
	movq	%rcx, 208(%rsp)         # 8-byte Spill
	jb	.LBB1_9
# %bb.7:                                # %for.body22.for.body22_crit_edge.preheader.new
	movl	$1024, %eax             # imm = 0x400
	movl	%eax, %ecx
	movq	224(%rsp), %rdx         # 8-byte Reload
	movq	216(%rsp), %rsi         # 8-byte Reload
	subq	%rsi, %rdx
	movq	%rcx, 200(%rsp)         # 8-byte Spill
	movq	%rdx, 192(%rsp)         # 8-byte Spill
.LBB1_8:                                # %for.body22.for.body22_crit_edge
                                        # =>This Inner Loop Header: Depth=1
	movq	192(%rsp), %rax         # 8-byte Reload
	movq	200(%rsp), %rcx         # 8-byte Reload
	movq	spec_fd+16, %rdx
	movl	$329, 260(%rsp)         # imm = 0x149
	movb	$0, (%rdx,%rcx)
	movl	$332, 260(%rsp)         # imm = 0x14C
	movq	spec_fd+16, %rdx
	movl	$334, 260(%rsp)         # imm = 0x14E
	movb	$0, 1024(%rdx,%rcx)
	movl	$337, 260(%rsp)         # imm = 0x151
	movq	spec_fd+16, %rdx
	movl	$339, 260(%rsp)         # imm = 0x153
	movb	$0, 2048(%rdx,%rcx)
	movl	$342, 260(%rsp)         # imm = 0x156
	movq	spec_fd+16, %rdx
	movl	$344, 260(%rsp)         # imm = 0x158
	movb	$0, 3072(%rdx,%rcx)
	movl	$356, 260(%rsp)         # imm = 0x164
	addq	$4096, %rcx             # imm = 0x1000
	addq	$-4, %rax
	cmpq	$0, %rax
	movq	%rcx, %rdx
	movq	%rax, 192(%rsp)         # 8-byte Spill
	movq	%rdx, 200(%rsp)         # 8-byte Spill
	movq	%rcx, 208(%rsp)         # 8-byte Spill
	jne	.LBB1_8
.LBB1_9:                                # %for.end.loopexit.unr-lcssa
	movq	208(%rsp), %rax         # 8-byte Reload
	movq	216(%rsp), %rcx         # 8-byte Reload
	cmpq	$0, %rcx
	movq	%rax, 184(%rsp)         # 8-byte Spill
	je	.LBB1_12
# %bb.10:                               # %for.body22.for.body22_crit_edge.epil.preheader
	movq	184(%rsp), %rax         # 8-byte Reload
	movq	216(%rsp), %rcx         # 8-byte Reload
	movq	%rax, 176(%rsp)         # 8-byte Spill
	movq	%rcx, 168(%rsp)         # 8-byte Spill
	jmp	.LBB1_11
.LBB1_11:                               # %for.body22.for.body22_crit_edge.epil
                                        # =>This Inner Loop Header: Depth=1
	movq	168(%rsp), %rax         # 8-byte Reload
	movq	176(%rsp), %rcx         # 8-byte Reload
	movq	spec_fd+16, %rdx
	movl	$358, 260(%rsp)         # imm = 0x166
	movb	$0, (%rdx,%rcx)
	movl	$362, 260(%rsp)         # imm = 0x16A
	addq	$1024, %rcx             # imm = 0x400
	addq	$-1, %rax
	cmpq	$0, %rax
	movq	%rcx, 176(%rsp)         # 8-byte Spill
	movq	%rax, 168(%rsp)         # 8-byte Spill
	jne	.LBB1_11
.LBB1_12:                               # %for.end
	xorl	%esi, %esi
	movl	$16, %eax
	movl	%eax, %edx
	movabsq	$spec_fd, %rcx
	movl	spec_fd+24, %eax
	movl	$368, 260(%rsp)         # imm = 0x170
	addq	$24, %rcx
	movq	%rcx, %rdi
	movl	%eax, 164(%rsp)         # 4-byte Spill
	callq	memset
	movl	164(%rsp), %eax         # 4-byte Reload
	movl	%eax, spec_fd+24
	movl	$374, 260(%rsp)         # imm = 0x176
	addl	$1048576, %eax          # imm = 0x100000
	movslq	%eax, %rdi
	callq	malloc
	movq	%rax, spec_fd+40
	movl	$379, 260(%rsp)         # imm = 0x17B
	cmpq	$0, %rax
	movq	%rax, 152(%rsp)         # 8-byte Spill
	je	.LBB1_3
# %bb.13:                               # %if.end18.1
	movl	164(%rsp), %eax         # 4-byte Reload
	cmpl	$0, %eax
	jle	.LBB1_21
# %bb.14:                               # %for.body22.lr.ph.1
	movq	152(%rsp), %rax         # 8-byte Reload
	movb	$0, (%rax)
	movl	$396, 260(%rsp)         # imm = 0x18C
	movl	164(%rsp), %ecx         # 4-byte Reload
	cmpl	$1024, %ecx             # imm = 0x400
	jle	.LBB1_21
# %bb.15:                               # %for.body22.1.for.body22.1_crit_edge.preheader
	movl	$1024, %eax             # imm = 0x400
	movl	%eax, %ecx
	movl	164(%rsp), %eax         # 4-byte Reload
	movslq	%eax, %rdx
	addq	$-1025, %rdx            # imm = 0xFBFF
	movq	%rdx, %rsi
	shrq	$10, %rsi
	addq	$1, %rsi
	movq	%rsi, %rdi
	andq	$3, %rdi
	cmpq	$3072, %rdx             # imm = 0xC00
	movq	%rsi, 144(%rsp)         # 8-byte Spill
	movq	%rdi, 136(%rsp)         # 8-byte Spill
	movq	%rcx, 128(%rsp)         # 8-byte Spill
	jb	.LBB1_18
# %bb.16:                               # %for.body22.1.for.body22.1_crit_edge.preheader.new
	movl	$1024, %eax             # imm = 0x400
	movl	%eax, %ecx
	movq	144(%rsp), %rdx         # 8-byte Reload
	movq	136(%rsp), %rsi         # 8-byte Reload
	subq	%rsi, %rdx
	movq	%rcx, 120(%rsp)         # 8-byte Spill
	movq	%rdx, 112(%rsp)         # 8-byte Spill
.LBB1_17:                               # %for.body22.1.for.body22.1_crit_edge
                                        # =>This Inner Loop Header: Depth=1
	movq	112(%rsp), %rax         # 8-byte Reload
	movq	120(%rsp), %rcx         # 8-byte Reload
	movq	spec_fd+40, %rdx
	movl	$398, 260(%rsp)         # imm = 0x18E
	movb	$0, (%rdx,%rcx)
	movl	$401, 260(%rsp)         # imm = 0x191
	movq	spec_fd+40, %rdx
	movl	$403, 260(%rsp)         # imm = 0x193
	movb	$0, 1024(%rdx,%rcx)
	movl	$406, 260(%rsp)         # imm = 0x196
	movq	spec_fd+40, %rdx
	movl	$408, 260(%rsp)         # imm = 0x198
	movb	$0, 2048(%rdx,%rcx)
	movl	$411, 260(%rsp)         # imm = 0x19B
	movq	spec_fd+40, %rdx
	movl	$413, 260(%rsp)         # imm = 0x19D
	movb	$0, 3072(%rdx,%rcx)
	movl	$425, 260(%rsp)         # imm = 0x1A9
	addq	$4096, %rcx             # imm = 0x1000
	addq	$-4, %rax
	cmpq	$0, %rax
	movq	%rcx, %rdx
	movq	%rax, 112(%rsp)         # 8-byte Spill
	movq	%rdx, 120(%rsp)         # 8-byte Spill
	movq	%rcx, 128(%rsp)         # 8-byte Spill
	jne	.LBB1_17
.LBB1_18:                               # %for.end.1.loopexit.unr-lcssa
	movq	128(%rsp), %rax         # 8-byte Reload
	movq	136(%rsp), %rcx         # 8-byte Reload
	cmpq	$0, %rcx
	movq	%rax, 104(%rsp)         # 8-byte Spill
	je	.LBB1_21
# %bb.19:                               # %for.body22.1.for.body22.1_crit_edge.epil.preheader
	movq	104(%rsp), %rax         # 8-byte Reload
	movq	136(%rsp), %rcx         # 8-byte Reload
	movq	%rax, 96(%rsp)          # 8-byte Spill
	movq	%rcx, 88(%rsp)          # 8-byte Spill
	jmp	.LBB1_20
.LBB1_20:                               # %for.body22.1.for.body22.1_crit_edge.epil
                                        # =>This Inner Loop Header: Depth=1
	movq	88(%rsp), %rax          # 8-byte Reload
	movq	96(%rsp), %rcx          # 8-byte Reload
	movq	spec_fd+40, %rdx
	movl	$427, 260(%rsp)         # imm = 0x1AB
	movb	$0, (%rdx,%rcx)
	movl	$431, 260(%rsp)         # imm = 0x1AF
	addq	$1024, %rcx             # imm = 0x400
	addq	$-1, %rax
	cmpq	$0, %rax
	movq	%rcx, 96(%rsp)          # 8-byte Spill
	movq	%rax, 88(%rsp)          # 8-byte Spill
	jne	.LBB1_20
.LBB1_21:                               # %for.end.1
	xorl	%esi, %esi
	movl	$16, %eax
	movl	%eax, %edx
	movabsq	$spec_fd, %rcx
	movl	spec_fd+48, %eax
	movl	$436, 260(%rsp)         # imm = 0x1B4
	addq	$48, %rcx
	movq	%rcx, %rdi
	movl	%eax, 84(%rsp)          # 4-byte Spill
	callq	memset
	movl	84(%rsp), %eax          # 4-byte Reload
	movl	%eax, spec_fd+48
	movl	$442, 260(%rsp)         # imm = 0x1BA
	addl	$1048576, %eax          # imm = 0x100000
	movslq	%eax, %rdi
	callq	malloc
	movq	%rax, spec_fd+64
	movl	$447, 260(%rsp)         # imm = 0x1BF
	cmpq	$0, %rax
	movq	%rax, 72(%rsp)          # 8-byte Spill
	je	.LBB1_3
# %bb.22:                               # %if.end18.2
	movl	84(%rsp), %eax          # 4-byte Reload
	cmpl	$0, %eax
	jle	.LBB1_30
# %bb.23:                               # %for.body22.lr.ph.2
	movq	72(%rsp), %rax          # 8-byte Reload
	movb	$0, (%rax)
	movl	$464, 260(%rsp)         # imm = 0x1D0
	movl	84(%rsp), %ecx          # 4-byte Reload
	cmpl	$1024, %ecx             # imm = 0x400
	jle	.LBB1_30
# %bb.24:                               # %for.body22.2.for.body22.2_crit_edge.preheader
	movl	$1024, %eax             # imm = 0x400
	movl	%eax, %ecx
	movl	84(%rsp), %eax          # 4-byte Reload
	movslq	%eax, %rdx
	addq	$-1025, %rdx            # imm = 0xFBFF
	movq	%rdx, %rsi
	shrq	$10, %rsi
	addq	$1, %rsi
	movq	%rsi, %rdi
	andq	$3, %rdi
	cmpq	$3072, %rdx             # imm = 0xC00
	movq	%rsi, 64(%rsp)          # 8-byte Spill
	movq	%rdi, 56(%rsp)          # 8-byte Spill
	movq	%rcx, 48(%rsp)          # 8-byte Spill
	jb	.LBB1_27
# %bb.25:                               # %for.body22.2.for.body22.2_crit_edge.preheader.new
	movl	$1024, %eax             # imm = 0x400
	movl	%eax, %ecx
	movq	64(%rsp), %rdx          # 8-byte Reload
	movq	56(%rsp), %rsi          # 8-byte Reload
	subq	%rsi, %rdx
	movq	%rcx, 40(%rsp)          # 8-byte Spill
	movq	%rdx, 32(%rsp)          # 8-byte Spill
.LBB1_26:                               # %for.body22.2.for.body22.2_crit_edge
                                        # =>This Inner Loop Header: Depth=1
	movq	32(%rsp), %rax          # 8-byte Reload
	movq	40(%rsp), %rcx          # 8-byte Reload
	movq	spec_fd+64, %rdx
	movl	$466, 260(%rsp)         # imm = 0x1D2
	movb	$0, (%rdx,%rcx)
	movl	$469, 260(%rsp)         # imm = 0x1D5
	movq	spec_fd+64, %rdx
	movl	$471, 260(%rsp)         # imm = 0x1D7
	movb	$0, 1024(%rdx,%rcx)
	movl	$474, 260(%rsp)         # imm = 0x1DA
	movq	spec_fd+64, %rdx
	movl	$476, 260(%rsp)         # imm = 0x1DC
	movb	$0, 2048(%rdx,%rcx)
	movl	$479, 260(%rsp)         # imm = 0x1DF
	movq	spec_fd+64, %rdx
	movl	$481, 260(%rsp)         # imm = 0x1E1
	movb	$0, 3072(%rdx,%rcx)
	movl	$493, 260(%rsp)         # imm = 0x1ED
	addq	$4096, %rcx             # imm = 0x1000
	addq	$-4, %rax
	cmpq	$0, %rax
	movq	%rcx, %rdx
	movq	%rax, 32(%rsp)          # 8-byte Spill
	movq	%rdx, 40(%rsp)          # 8-byte Spill
	movq	%rcx, 48(%rsp)          # 8-byte Spill
	jne	.LBB1_26
.LBB1_27:                               # %for.end.2.loopexit.unr-lcssa
	movq	48(%rsp), %rax          # 8-byte Reload
	movq	56(%rsp), %rcx          # 8-byte Reload
	cmpq	$0, %rcx
	movq	%rax, 24(%rsp)          # 8-byte Spill
	je	.LBB1_30
# %bb.28:                               # %for.body22.2.for.body22.2_crit_edge.epil.preheader
	movq	24(%rsp), %rax          # 8-byte Reload
	movq	56(%rsp), %rcx          # 8-byte Reload
	movq	%rax, 16(%rsp)          # 8-byte Spill
	movq	%rcx, 8(%rsp)           # 8-byte Spill
	jmp	.LBB1_29
.LBB1_29:                               # %for.body22.2.for.body22.2_crit_edge.epil
                                        # =>This Inner Loop Header: Depth=1
	movq	8(%rsp), %rax           # 8-byte Reload
	movq	16(%rsp), %rcx          # 8-byte Reload
	movq	spec_fd+64, %rdx
	movl	$495, 260(%rsp)         # imm = 0x1EF
	movb	$0, (%rdx,%rcx)
	movl	$511, 260(%rsp)         # imm = 0x1FF
	addq	$1024, %rcx             # imm = 0x400
	addq	$-1, %rax
	cmpq	$0, %rax
	movq	%rcx, 16(%rsp)          # 8-byte Spill
	movq	%rax, 8(%rsp)           # 8-byte Spill
	jne	.LBB1_29
.LBB1_30:                               # %for.end.2
	xorl	%eax, %eax
	addq	$264, %rsp              # imm = 0x108
	retq
.Lfunc_end1:
	.size	spec_init, .Lfunc_end1-spec_init
	.cfi_endproc
                                        # -- End function
	.section	.rodata.cst8,"aM",@progbits,8
	.p2align	3               # -- Begin function spec_random_load
.LCPI2_0:
	.quad	4629700416936869888     # double 32
	.section	.rodata.cst4,"aM",@progbits,4
	.p2align	2
.LCPI2_1:
	.long	805306368               # float 4.65661287E-10
	.text
	.globl	spec_random_load
	.p2align	4, 0x90
	.type	spec_random_load,@function
spec_random_load:                       # @spec_random_load
	.cfi_startproc
# %bb.0:                                # %entry
	subq	$4194472, %rsp          # imm = 0x4000A8
	.cfi_def_cfa_offset 4194480
	leaq	160(%rsp), %rax
	movl	$9999, 4194468(%rsp)    # imm = 0x270F
	movl	dbglvl, %ecx
	movl	$527, 4194468(%rsp)     # imm = 0x20F
	cmpl	$4, %ecx
	movl	%edi, 156(%rsp)         # 4-byte Spill
	movq	%rax, 144(%rsp)         # 8-byte Spill
	movl	%ecx, 140(%rsp)         # 4-byte Spill
	jle	.LBB2_2
# %bb.1:                                # %if.then
	movabsq	$.Lstr.36, %rdi
	callq	puts
	movl	dbglvl, %ecx
	movl	$544, 4194468(%rsp)     # imm = 0x220
	movl	%eax, 136(%rsp)         # 4-byte Spill
	movl	%ecx, 140(%rsp)         # 4-byte Spill
.LBB2_2:                                # %for.body.preheader
	movl	140(%rsp), %eax         # 4-byte Reload
	xorl	%ecx, %ecx
	movl	%ecx, %edx
	movq	%rdx, 128(%rsp)         # 8-byte Spill
	movl	%eax, 124(%rsp)         # 4-byte Spill
.LBB2_3:                                # %for.body
                                        # =>This Loop Header: Depth=1
                                        #     Child Loop BB2_6 Depth 2
	movl	124(%rsp), %eax         # 4-byte Reload
	movq	128(%rsp), %rcx         # 8-byte Reload
	cmpl	$5, %eax
	movq	%rcx, 112(%rsp)         # 8-byte Spill
	jle	.LBB2_5
# %bb.4:                                # %if.then3
                                        #   in Loop: Header=BB2_3 Depth=1
	movabsq	$.L.str.3, %rdi
	movq	112(%rsp), %rax         # 8-byte Reload
	movl	%eax, %ecx
	movl	%ecx, %esi
	movb	$0, %al
	callq	printf
	movl	%eax, 108(%rsp)         # 4-byte Spill
.LBB2_5:                                # %if.end5
                                        #   in Loop: Header=BB2_3 Depth=1
	xorl	%eax, %eax
	movl	%eax, %ecx
	movq	seedi, %rdx
	movl	$548, 4194468(%rsp)     # imm = 0x224
	movq	%rcx, 96(%rsp)          # 8-byte Spill
	movq	%rdx, 88(%rsp)          # 8-byte Spill
.LBB2_6:                                # %for.body8
                                        #   Parent Loop BB2_3 Depth=1
                                        # =>  This Inner Loop Header: Depth=2
	movq	88(%rsp), %rax          # 8-byte Reload
	movq	96(%rsp), %rcx          # 8-byte Reload
	movl	$127773, %edx           # imm = 0x1F31D
	movl	%edx, %esi
	movq	%rax, 80(%rsp)          # 8-byte Spill
	cqto
	idivq	%rsi
	movq	80(%rsp), %rdi          # 8-byte Reload
	movq	%rax, 72(%rsp)          # 8-byte Spill
	movq	%rdi, %rax
	cqto
	idivq	%rsi
	imulq	$16807, %rdx, %rdx      # imm = 0x41A7
	movq	72(%rsp), %rsi          # 8-byte Reload
	imulq	$-2836, %rsi, %rsi      # imm = 0xF4EC
	addq	%rsi, %rdx
	movq	%rdx, %rsi
	addq	$2147483647, %rsi       # imm = 0x7FFFFFFF
	cmpq	$0, %rdx
	cmovgq	%rdx, %rsi
	movl	$567, 4194468(%rsp)     # imm = 0x237
	addq	$1, %rcx
	cmpq	$131072, %rcx           # imm = 0x20000
	movq	%rsi, %rdx
	movq	%rsi, 64(%rsp)          # 8-byte Spill
	movq	%rcx, 96(%rsp)          # 8-byte Spill
	movq	%rdx, 88(%rsp)          # 8-byte Spill
	jne	.LBB2_6
# %bb.7:                                # %for.inc13
                                        #   in Loop: Header=BB2_3 Depth=1
	movq	64(%rsp), %rax          # 8-byte Reload
	movq	%rax, seedi
	movl	$535, 4194468(%rsp)     # imm = 0x217
	movq	112(%rsp), %rcx         # 8-byte Reload
	addq	$1, %rcx
	movl	dbglvl, %edx
	movl	$577, 4194468(%rsp)     # imm = 0x241
	cmpq	$32, %rcx
	movl	%edx, %esi
	movl	%edx, 60(%rsp)          # 4-byte Spill
	movq	%rcx, 128(%rsp)         # 8-byte Spill
	movl	%esi, 124(%rsp)         # 4-byte Spill
	jne	.LBB2_3
# %bb.8:                                # %for.end15
	movl	60(%rsp), %eax          # 4-byte Reload
	cmpl	$4, %eax
	jle	.LBB2_10
# %bb.9:                                # %if.then18
	movabsq	$.Lstr.35, %rdi
	callq	puts
	movl	%eax, 56(%rsp)          # 4-byte Spill
.LBB2_10:                               # %if.end20
	movabsq	$spec_fd, %rax
	movl	156(%rsp), %ecx         # 4-byte Reload
	movslq	%ecx, %rdx
	imulq	$24, %rdx, %rsi
	addq	%rsi, %rax
	movl	(%rax), %edi
	movl	$584, 4194468(%rsp)     # imm = 0x248
	cmpl	$0, %edi
	movq	%rax, 48(%rsp)          # 8-byte Spill
	movq	%rdx, 40(%rsp)          # 8-byte Spill
	jle	.LBB2_13
# %bb.11:                               # %for.body26.lr.ph
	xorl	%eax, %eax
	movl	%eax, %ecx
	movabsq	$spec_fd, %rdx
	movq	40(%rsp), %rsi          # 8-byte Reload
	imulq	$24, %rsi, %rdi
	addq	%rdi, %rdx
	addq	$16, %rdx
	movq	%rdx, 32(%rsp)          # 8-byte Spill
	movq	%rcx, 24(%rsp)          # 8-byte Spill
.LBB2_12:                               # %for.body26
                                        # =>This Inner Loop Header: Depth=1
	movq	24(%rsp), %rax          # 8-byte Reload
	movl	$131072, %ecx           # imm = 0x20000
	movl	%ecx, %edx
	leaq	160(%rsp), %rsi
	movsd	.LCPI2_0(%rip), %xmm0   # xmm0 = mem[0],zero
	movss	.LCPI2_1(%rip), %xmm1   # xmm1 = mem[0],zero,zero,zero
	movl	$127773, %ecx           # imm = 0x1F31D
	movl	%ecx, %edi
	movq	32(%rsp), %r8           # 8-byte Reload
	movq	(%r8), %r9
	movl	$586, 4194468(%rsp)     # imm = 0x24A
	addq	%rax, %r9
	movq	seedi, %r10
	movl	$594, 4194468(%rsp)     # imm = 0x252
	movq	%rax, 16(%rsp)          # 8-byte Spill
	movq	%r10, %rax
	movq	%rdx, 8(%rsp)           # 8-byte Spill
	cqto
	idivq	%rdi
	movq	%rax, (%rsp)            # 8-byte Spill
	movq	%r10, %rax
	cqto
	idivq	%rdi
	imulq	$16807, %rdx, %rdx      # imm = 0x41A7
	movq	(%rsp), %rdi            # 8-byte Reload
	imulq	$-2836, %rdi, %rdi      # imm = 0xF4EC
	addq	%rdi, %rdx
	movq	%rdx, %rdi
	addq	$2147483647, %rdi       # imm = 0x7FFFFFFF
	cmpq	$0, %rdx
	cmovgq	%rdx, %rdi
	movq	%rdi, seedi
	movl	$596, 4194468(%rsp)     # imm = 0x254
	cvtsi2ssq	%rdi, %xmm2
	mulss	%xmm1, %xmm2
	cvtss2sd	%xmm2, %xmm1
	mulsd	%xmm0, %xmm1
	cvttsd2si	%xmm1, %ecx
	movslq	%ecx, %rdx
	shlq	$17, %rdx
	addq	%rdx, %rsi
	movq	%r9, %rdi
	movq	8(%rsp), %rdx           # 8-byte Reload
	callq	memcpy
	movq	16(%rsp), %rdx          # 8-byte Reload
	addq	$131072, %rdx           # imm = 0x20000
	movq	48(%rsp), %rsi          # 8-byte Reload
	movl	(%rsi), %ecx
	movl	$613, 4194468(%rsp)     # imm = 0x265
	movslq	%ecx, %rdi
	cmpq	%rdi, %rdx
	movq	%rdx, 24(%rsp)          # 8-byte Spill
	jl	.LBB2_12
.LBB2_13:                               # %for.end35
	xorl	%eax, %eax
	movabsq	$spec_fd, %rcx
	movq	40(%rsp), %rdx          # 8-byte Reload
	imulq	$24, %rdx, %rsi
	addq	%rsi, %rcx
	addq	$4, %rcx
	movl	$1048576, (%rcx)        # imm = 0x100000
	movl	$634, 4194468(%rsp)     # imm = 0x27A
	addq	$4194472, %rsp          # imm = 0x4000A8
	retq
.Lfunc_end2:
	.size	spec_random_load, .Lfunc_end2-spec_random_load
	.cfi_endproc
                                        # -- End function
	.globl	spec_load               # -- Begin function spec_load
	.p2align	4, 0x90
	.type	spec_load,@function
spec_load:                              # @spec_load
	.cfi_startproc
# %bb.0:                                # %entry
	subq	$152, %rsp
	.cfi_def_cfa_offset 160
	xorl	%eax, %eax
	movl	$9999, 148(%rsp)        # imm = 0x270F
	movl	%edi, 144(%rsp)         # 4-byte Spill
	movq	%rsi, %rdi
	movq	%rsi, 136(%rsp)         # 8-byte Spill
	movl	%eax, %esi
	movb	$0, %al
	movl	%edx, 132(%rsp)         # 4-byte Spill
	callq	open
	cmpl	$0, %eax
	movl	%eax, 128(%rsp)         # 4-byte Spill
	jge	.LBB3_2
# %bb.1:                                # %if.then
	movq	stderr, %rdi
	movl	$650, 148(%rsp)         # imm = 0x28A
	movq	%rdi, 120(%rsp)         # 8-byte Spill
	callq	__errno_location
	movl	(%rax), %edi
	movl	$663, 148(%rsp)         # imm = 0x297
	callq	strerror
	movabsq	$.L.str.5, %rsi
	movq	120(%rsp), %rdi         # 8-byte Reload
	movq	136(%rsp), %rdx         # 8-byte Reload
	movq	%rax, %rcx
	movb	$0, %al
	callq	fprintf
	xorl	%edi, %edi
	movl	%eax, 116(%rsp)         # 4-byte Spill
	callq	exit
	jmp	.LBB3_14
.LBB3_2:                                # %if.end
	movabsq	$spec_fd, %rax
	movl	144(%rsp), %ecx         # 4-byte Reload
	movslq	%ecx, %rdx
	imulq	$24, %rdx, %rsi
	movq	%rax, %rdi
	addq	%rsi, %rdi
	addq	$4, %rdi
	movl	$0, (%rdi)
	movl	$665, 148(%rsp)         # imm = 0x299
	imulq	$24, %rdx, %rsi
	addq	%rsi, %rax
	addq	$8, %rax
	movl	$0, (%rax)
	movl	$672, 148(%rsp)         # imm = 0x2A0
	movl	132(%rsp), %r8d         # 4-byte Reload
	cmpl	$0, %r8d
	movq	%rdi, 104(%rsp)         # 8-byte Spill
	movq	%rdx, 96(%rsp)          # 8-byte Spill
	jle	.LBB3_8
# %bb.3:                                # %for.body.lr.ph
	xorl	%eax, %eax
	movabsq	$spec_fd, %rcx
	movq	96(%rsp), %rdx          # 8-byte Reload
	imulq	$24, %rdx, %rsi
	addq	%rsi, %rcx
	addq	$16, %rcx
	movq	%rcx, 88(%rsp)          # 8-byte Spill
	movl	%eax, 84(%rsp)          # 4-byte Spill
.LBB3_4:                                # %for.body
                                        # =>This Inner Loop Header: Depth=1
	movl	84(%rsp), %eax          # 4-byte Reload
	movl	$131072, %ecx           # imm = 0x20000
	movl	%ecx, %edx
	movq	88(%rsp), %rsi          # 8-byte Reload
	movq	(%rsi), %rdi
	movl	$683, 148(%rsp)         # imm = 0x2AB
	movslq	%eax, %r8
	addq	%r8, %rdi
	movl	128(%rsp), %ecx         # 4-byte Reload
	movq	%rdi, 72(%rsp)          # 8-byte Spill
	movl	%ecx, %edi
	movq	72(%rsp), %rsi          # 8-byte Reload
	movl	%eax, 68(%rsp)          # 4-byte Spill
	callq	read
	movl	%eax, %ecx
	cmpl	$0, %ecx
	movl	%ecx, 64(%rsp)          # 4-byte Spill
	je	.LBB3_8
# %bb.5:                                # %if.end13
                                        #   in Loop: Header=BB3_4 Depth=1
	movl	64(%rsp), %eax          # 4-byte Reload
	cmpl	$0, %eax
	jge	.LBB3_7
# %bb.6:                                # %if.then16
	movq	stderr, %rdi
	movl	$686, 148(%rsp)         # imm = 0x2AE
	movq	%rdi, 56(%rsp)          # 8-byte Spill
	callq	__errno_location
	movl	(%rax), %edi
	movl	$693, 148(%rsp)         # imm = 0x2B5
	callq	strerror
	movabsq	$.L.str.6, %rsi
	movq	56(%rsp), %rdi          # 8-byte Reload
	movq	136(%rsp), %rdx         # 8-byte Reload
	movq	%rax, %rcx
	movb	$0, %al
	callq	fprintf
	xorl	%edi, %edi
	movl	%eax, 52(%rsp)          # 4-byte Spill
	callq	exit
	jmp	.LBB3_14
.LBB3_7:                                # %if.end20
                                        #   in Loop: Header=BB3_4 Depth=1
	movq	104(%rsp), %rax         # 8-byte Reload
	movl	(%rax), %ecx
	movl	$695, 148(%rsp)         # imm = 0x2B7
	movl	64(%rsp), %edx          # 4-byte Reload
	addl	%edx, %ecx
	movl	%ecx, (%rax)
	movl	$701, 148(%rsp)         # imm = 0x2BD
	movl	68(%rsp), %ecx          # 4-byte Reload
	addl	%edx, %ecx
	movl	132(%rsp), %esi         # 4-byte Reload
	cmpl	%esi, %ecx
	movl	%ecx, 84(%rsp)          # 4-byte Spill
	jl	.LBB3_4
.LBB3_8:                                # %for.end
	movl	128(%rsp), %edi         # 4-byte Reload
	callq	close
	movq	104(%rsp), %rcx         # 8-byte Reload
	movl	(%rcx), %edi
	movl	$711, 148(%rsp)         # imm = 0x2C7
	movl	132(%rsp), %edx         # 4-byte Reload
	cmpl	%edx, %edi
	movl	%eax, 48(%rsp)          # 4-byte Spill
	movl	%edi, 44(%rsp)          # 4-byte Spill
	jge	.LBB3_13
# %bb.9:                                # %while.body.lr.ph
	movabsq	$spec_fd, %rax
	movq	96(%rsp), %rcx          # 8-byte Reload
	imulq	$24, %rcx, %rdx
	addq	%rdx, %rax
	addq	$16, %rax
	movl	44(%rsp), %esi          # 4-byte Reload
	movq	%rax, 32(%rsp)          # 8-byte Spill
	movl	%esi, 28(%rsp)          # 4-byte Spill
.LBB3_10:                               # %while.body
                                        # =>This Inner Loop Header: Depth=1
	movl	28(%rsp), %eax          # 4-byte Reload
	movl	132(%rsp), %ecx         # 4-byte Reload
	subl	%eax, %ecx
	cmpl	%eax, %ecx
	cmovgl	%eax, %ecx
	movl	dbglvl, %edx
	movl	$716, 148(%rsp)         # imm = 0x2CC
	cmpl	$3, %edx
	movl	%ecx, 24(%rsp)          # 4-byte Spill
	movl	%eax, 20(%rsp)          # 4-byte Spill
	jle	.LBB3_12
# %bb.11:                               # %if.then46
                                        #   in Loop: Header=BB3_10 Depth=1
	movabsq	$.L.str.7, %rdi
	movl	24(%rsp), %esi          # 4-byte Reload
	movb	$0, %al
	callq	printf
	movq	104(%rsp), %rdi         # 8-byte Reload
	movl	(%rdi), %esi
	movl	$719, 148(%rsp)         # imm = 0x2CF
	movl	%eax, 16(%rsp)          # 4-byte Spill
	movl	%esi, 20(%rsp)          # 4-byte Spill
.LBB3_12:                               # %if.end48
                                        #   in Loop: Header=BB3_10 Depth=1
	movl	20(%rsp), %eax          # 4-byte Reload
	movq	32(%rsp), %rcx          # 8-byte Reload
	movq	(%rcx), %rdx
	movl	$724, 148(%rsp)         # imm = 0x2D4
	movslq	%eax, %rsi
	movq	%rdx, %rdi
	addq	%rsi, %rdi
	movl	24(%rsp), %eax          # 4-byte Reload
	movslq	%eax, %rsi
	movq	%rsi, 8(%rsp)           # 8-byte Spill
	movq	%rdx, %rsi
	movq	8(%rsp), %rdx           # 8-byte Reload
	callq	memcpy
	movq	104(%rsp), %rcx         # 8-byte Reload
	movl	(%rcx), %eax
	movl	$725, 148(%rsp)         # imm = 0x2D5
	movl	24(%rsp), %r8d          # 4-byte Reload
	addl	%r8d, %eax
	movl	%eax, (%rcx)
	movl	$753, 148(%rsp)         # imm = 0x2F1
	movl	132(%rsp), %r9d         # 4-byte Reload
	cmpl	%r9d, %eax
	movl	%eax, 28(%rsp)          # 4-byte Spill
	jl	.LBB3_10
.LBB3_13:                               # %while.end
	xorl	%eax, %eax
	addq	$152, %rsp
	retq
.LBB3_14:                               # %UnifiedUnreachableBlock
.Lfunc_end3:
	.size	spec_load, .Lfunc_end3-spec_load
	.cfi_endproc
                                        # -- End function
	.globl	spec_read               # -- Begin function spec_read
	.p2align	4, 0x90
	.type	spec_read,@function
spec_read:                              # @spec_read
	.cfi_startproc
# %bb.0:                                # %entry
	subq	$88, %rsp
	.cfi_def_cfa_offset 96
	movl	$9999, 84(%rsp)         # imm = 0x270F
	movl	dbglvl, %eax
	movl	$761, 84(%rsp)          # imm = 0x2F9
	cmpl	$4, %eax
	movq	%rsi, 72(%rsp)          # 8-byte Spill
	movl	%edi, 68(%rsp)          # 4-byte Spill
	movl	%edx, 64(%rsp)          # 4-byte Spill
	jle	.LBB4_2
# %bb.1:                                # %if.then
	movabsq	$.L.str.8, %rdi
	movl	68(%rsp), %esi          # 4-byte Reload
	movq	72(%rsp), %rdx          # 8-byte Reload
	movl	64(%rsp), %ecx          # 4-byte Reload
	movb	$0, %al
	callq	printf
	movl	%eax, 60(%rsp)          # 4-byte Spill
.LBB4_2:                                # %if.end
	movl	68(%rsp), %eax          # 4-byte Reload
	cmpl	$3, %eax
	jle	.LBB4_4
# %bb.3:                                # %if.then2
	movabsq	$.L.str.9, %rsi
	movq	stderr, %rdi
	movl	$768, 84(%rsp)          # imm = 0x300
	movl	68(%rsp), %edx          # 4-byte Reload
	movb	$0, %al
	callq	fprintf
	xorl	%edi, %edi
	movl	%eax, 56(%rsp)          # 4-byte Spill
	callq	exit
.LBB4_4:                                # %if.end4
	movabsq	$spec_fd, %rax
	movl	68(%rsp), %ecx          # 4-byte Reload
	movslq	%ecx, %rdx
	imulq	$24, %rdx, %rsi
	movq	%rax, %rdi
	addq	%rsi, %rdi
	addq	$8, %rdi
	movl	(%rdi), %r8d
	movl	$770, 84(%rsp)          # imm = 0x302
	imulq	$24, %rdx, %rsi
	addq	%rsi, %rax
	addq	$4, %rax
	movl	(%rax), %r9d
	movl	$773, 84(%rsp)          # imm = 0x305
	cmpl	%r8d, %r9d
	movl	%r8d, 52(%rsp)          # 4-byte Spill
	movq	%rdx, 40(%rsp)          # 8-byte Spill
	movq	%rdi, 32(%rsp)          # 8-byte Spill
	movl	%r9d, 28(%rsp)          # 4-byte Spill
	jg	.LBB4_7
# %bb.5:                                # %if.then8
	movl	$4294967295, %eax       # imm = 0xFFFFFFFF
	movl	dbglvl, %ecx
	movl	$784, 84(%rsp)          # imm = 0x310
	cmpl	$4, %ecx
	movl	%eax, 24(%rsp)          # 4-byte Spill
	jle	.LBB4_9
# %bb.6:                                # %if.then10
	movabsq	$.Lstr.39, %rdi
	callq	puts
	movl	$4294967295, %ecx       # imm = 0xFFFFFFFF
	movl	%eax, 20(%rsp)          # 4-byte Spill
	movl	%ecx, 24(%rsp)          # 4-byte Spill
	jmp	.LBB4_9
.LBB4_7:                                # %if.end13
	movabsq	$spec_fd, %rax
	movl	52(%rsp), %ecx          # 4-byte Reload
	movl	64(%rsp), %edx          # 4-byte Reload
	addl	%edx, %ecx
	movl	28(%rsp), %esi          # 4-byte Reload
	movl	52(%rsp), %edi          # 4-byte Reload
	subl	%edi, %esi
	movl	28(%rsp), %r8d          # 4-byte Reload
	cmpl	%r8d, %ecx
	cmovll	%edx, %esi
	movq	40(%rsp), %r9           # 8-byte Reload
	imulq	$24, %r9, %r10
	addq	%r10, %rax
	addq	$16, %rax
	movq	(%rax), %rax
	movl	$789, 84(%rsp)          # imm = 0x315
	movslq	%edi, %r10
	addq	%r10, %rax
	movslq	%esi, %rdx
	movq	72(%rsp), %rdi          # 8-byte Reload
	movl	%esi, 16(%rsp)          # 4-byte Spill
	movq	%rax, %rsi
	callq	memcpy
	movq	32(%rsp), %rax          # 8-byte Reload
	movl	(%rax), %ecx
	movl	$791, 84(%rsp)          # imm = 0x317
	movl	16(%rsp), %r8d          # 4-byte Reload
	addl	%r8d, %ecx
	movl	%ecx, (%rax)
	movl	$792, 84(%rsp)          # imm = 0x318
	movl	dbglvl, %ecx
	movl	$808, 84(%rsp)          # imm = 0x328
	cmpl	$4, %ecx
	movl	%r8d, 24(%rsp)          # 4-byte Spill
	jle	.LBB4_9
# %bb.8:                                # %if.then43
	movabsq	$.L.str.11, %rdi
	movl	16(%rsp), %esi          # 4-byte Reload
	movb	$0, %al
	callq	printf
	movl	16(%rsp), %esi          # 4-byte Reload
	movl	%eax, 12(%rsp)          # 4-byte Spill
	movl	%esi, 24(%rsp)          # 4-byte Spill
.LBB4_9:                                # %cleanup
	movl	24(%rsp), %eax          # 4-byte Reload
	addq	$88, %rsp
	retq
.Lfunc_end4:
	.size	spec_read, .Lfunc_end4-spec_read
	.cfi_endproc
                                        # -- End function
	.globl	spec_fread              # -- Begin function spec_fread
	.p2align	4, 0x90
	.type	spec_fread,@function
spec_fread:                             # @spec_fread
	.cfi_startproc
# %bb.0:                                # %entry
	subq	$104, %rsp
	.cfi_def_cfa_offset 112
	movl	$9999, 100(%rsp)        # imm = 0x270F
	movl	dbglvl, %eax
	movl	$816, 100(%rsp)         # imm = 0x330
	cmpl	$4, %eax
	movl	%edx, 96(%rsp)          # 4-byte Spill
	movl	%esi, 92(%rsp)          # 4-byte Spill
	movq	%rdi, 80(%rsp)          # 8-byte Spill
	movl	%ecx, 76(%rsp)          # 4-byte Spill
	jle	.LBB5_2
# %bb.1:                                # %if.then
	movabsq	$.L.str.12, %rdi
	movq	80(%rsp), %rsi          # 8-byte Reload
	movl	92(%rsp), %edx          # 4-byte Reload
	movl	96(%rsp), %ecx          # 4-byte Reload
	movl	76(%rsp), %r8d          # 4-byte Reload
	movb	$0, %al
	callq	printf
	movl	%eax, 72(%rsp)          # 4-byte Spill
.LBB5_2:                                # %if.end
	movl	76(%rsp), %eax          # 4-byte Reload
	cmpl	$3, %eax
	jle	.LBB5_4
# %bb.3:                                # %if.then2
	movabsq	$.L.str.13, %rsi
	movq	stderr, %rdi
	movl	$823, 100(%rsp)         # imm = 0x337
	movl	76(%rsp), %edx          # 4-byte Reload
	movb	$0, %al
	callq	fprintf
	xorl	%edi, %edi
	movl	%eax, 68(%rsp)          # 4-byte Spill
	callq	exit
.LBB5_4:                                # %if.end4
	movabsq	$spec_fd, %rax
	movl	76(%rsp), %ecx          # 4-byte Reload
	movslq	%ecx, %rdx
	imulq	$24, %rdx, %rsi
	movq	%rax, %rdi
	addq	%rsi, %rdi
	addq	$8, %rdi
	movl	(%rdi), %r8d
	movl	$825, 100(%rsp)         # imm = 0x339
	imulq	$24, %rdx, %rsi
	addq	%rsi, %rax
	addq	$4, %rax
	movl	(%rax), %r9d
	movl	$828, 100(%rsp)         # imm = 0x33C
	cmpl	%r8d, %r9d
	movl	%r8d, 64(%rsp)          # 4-byte Spill
	movq	%rdx, 56(%rsp)          # 8-byte Spill
	movq	%rdi, 48(%rsp)          # 8-byte Spill
	movl	%r9d, 44(%rsp)          # 4-byte Spill
	jg	.LBB5_7
# %bb.5:                                # %if.then8
	movl	$4294967295, %eax       # imm = 0xFFFFFFFF
	movl	dbglvl, %ecx
	movl	$845, 100(%rsp)         # imm = 0x34D
	cmpl	$4, %ecx
	movl	%eax, 40(%rsp)          # 4-byte Spill
	jle	.LBB5_11
# %bb.6:                                # %if.then10
	movabsq	$.Lstr.39, %rdi
	callq	puts
	movl	$4294967295, %ecx       # imm = 0xFFFFFFFF
	movl	%eax, 36(%rsp)          # 4-byte Spill
	movl	%ecx, 40(%rsp)          # 4-byte Spill
	jmp	.LBB5_11
.LBB5_7:                                # %if.end13
	movl	96(%rsp), %eax          # 4-byte Reload
	movl	92(%rsp), %ecx          # 4-byte Reload
	imull	%ecx, %eax
	movl	64(%rsp), %edx          # 4-byte Reload
	addl	%eax, %edx
	movl	44(%rsp), %esi          # 4-byte Reload
	cmpl	%esi, %edx
	movl	96(%rsp), %edx          # 4-byte Reload
	movl	%eax, 32(%rsp)          # 4-byte Spill
	movl	%edx, 28(%rsp)          # 4-byte Spill
	jl	.LBB5_9
# %bb.8:                                # %if.then21
	movl	44(%rsp), %eax          # 4-byte Reload
	movl	64(%rsp), %ecx          # 4-byte Reload
	subl	%ecx, %eax
	cltd
	movl	92(%rsp), %esi          # 4-byte Reload
	idivl	%esi
	movl	%eax, %edi
	imull	%esi, %edi
	movl	%edi, 32(%rsp)          # 4-byte Spill
	movl	%eax, 28(%rsp)          # 4-byte Spill
.LBB5_9:                                # %if.end28
	movl	28(%rsp), %eax          # 4-byte Reload
	movl	32(%rsp), %ecx          # 4-byte Reload
	movabsq	$spec_fd, %rdx
	movq	56(%rsp), %rsi          # 8-byte Reload
	imulq	$24, %rsi, %rdi
	addq	%rdi, %rdx
	addq	$16, %rdx
	movq	(%rdx), %rdx
	movl	$850, 100(%rsp)         # imm = 0x352
	movl	64(%rsp), %r8d          # 4-byte Reload
	movslq	%r8d, %rdi
	addq	%rdi, %rdx
	movslq	%eax, %rdi
	movq	80(%rsp), %r9           # 8-byte Reload
	movq	%rdi, 16(%rsp)          # 8-byte Spill
	movq	%r9, %rdi
	movq	%rdx, %rsi
	movq	16(%rsp), %rdx          # 8-byte Reload
	movl	%eax, 12(%rsp)          # 4-byte Spill
	movl	%ecx, 8(%rsp)           # 4-byte Spill
	callq	memcpy
	movq	48(%rsp), %rdx          # 8-byte Reload
	movl	(%rdx), %eax
	movl	$852, 100(%rsp)         # imm = 0x354
	movl	8(%rsp), %ecx           # 4-byte Reload
	addl	%ecx, %eax
	movl	%eax, (%rdx)
	movl	$853, 100(%rsp)         # imm = 0x355
	movl	dbglvl, %eax
	movl	$865, 100(%rsp)         # imm = 0x361
	cmpl	$4, %eax
	movl	12(%rsp), %eax          # 4-byte Reload
	movl	%eax, 40(%rsp)          # 4-byte Spill
	jle	.LBB5_11
# %bb.10:                               # %if.then44
	movabsq	$.L.str.11, %rdi
	movl	8(%rsp), %esi           # 4-byte Reload
	movb	$0, %al
	callq	printf
	movl	12(%rsp), %esi          # 4-byte Reload
	movl	%eax, 4(%rsp)           # 4-byte Spill
	movl	%esi, 40(%rsp)          # 4-byte Spill
.LBB5_11:                               # %cleanup
	movl	40(%rsp), %eax          # 4-byte Reload
	addq	$104, %rsp
	retq
.Lfunc_end5:
	.size	spec_fread, .Lfunc_end5-spec_fread
	.cfi_endproc
                                        # -- End function
	.globl	spec_getc               # -- Begin function spec_getc
	.p2align	4, 0x90
	.type	spec_getc,@function
spec_getc:                              # @spec_getc
	.cfi_startproc
# %bb.0:                                # %entry
	subq	$56, %rsp
	.cfi_def_cfa_offset 64
	movl	$9999, 52(%rsp)         # imm = 0x270F
	movl	dbglvl, %eax
	movl	$873, 52(%rsp)          # imm = 0x369
	cmpl	$4, %eax
	movl	%edi, 48(%rsp)          # 4-byte Spill
	jle	.LBB6_2
# %bb.1:                                # %if.then
	movabsq	$.L.str.14, %rdi
	movl	48(%rsp), %esi          # 4-byte Reload
	movb	$0, %al
	callq	printf
	movl	%eax, 44(%rsp)          # 4-byte Spill
.LBB6_2:                                # %if.end
	movl	48(%rsp), %eax          # 4-byte Reload
	cmpl	$3, %eax
	jle	.LBB6_4
# %bb.3:                                # %if.then2
	movabsq	$.L.str.9, %rsi
	movq	stderr, %rdi
	movl	$880, 52(%rsp)          # imm = 0x370
	movl	48(%rsp), %edx          # 4-byte Reload
	movb	$0, %al
	callq	fprintf
	xorl	%edi, %edi
	movl	%eax, 40(%rsp)          # 4-byte Spill
	callq	exit
.LBB6_4:                                # %if.end4
	movabsq	$spec_fd, %rax
	movl	48(%rsp), %ecx          # 4-byte Reload
	movslq	%ecx, %rdx
	imulq	$24, %rdx, %rsi
	movq	%rax, %rdi
	addq	%rsi, %rdi
	addq	$8, %rdi
	movl	(%rdi), %r8d
	movl	$882, 52(%rsp)          # imm = 0x372
	imulq	$24, %rdx, %rsi
	addq	%rsi, %rax
	addq	$4, %rax
	movl	(%rax), %r9d
	movl	$885, 52(%rsp)          # imm = 0x375
	cmpl	%r9d, %r8d
	movl	%r8d, 36(%rsp)          # 4-byte Spill
	movq	%rdx, 24(%rsp)          # 8-byte Spill
	movq	%rdi, 16(%rsp)          # 8-byte Spill
	jl	.LBB6_7
# %bb.5:                                # %if.then8
	movl	$4294967295, %eax       # imm = 0xFFFFFFFF
	movl	dbglvl, %ecx
	movl	$892, 52(%rsp)          # imm = 0x37C
	cmpl	$4, %ecx
	movl	%eax, 12(%rsp)          # 4-byte Spill
	jle	.LBB6_9
# %bb.6:                                # %if.then10
	movabsq	$.Lstr.39, %rdi
	callq	puts
	movl	$4294967295, %ecx       # imm = 0xFFFFFFFF
	movl	%eax, 8(%rsp)           # 4-byte Spill
	movl	%ecx, 12(%rsp)          # 4-byte Spill
	jmp	.LBB6_9
.LBB6_7:                                # %if.end13
	movabsq	$spec_fd, %rax
	movq	24(%rsp), %rcx          # 8-byte Reload
	imulq	$24, %rcx, %rdx
	addq	%rdx, %rax
	addq	$16, %rax
	movq	(%rax), %rax
	movl	$894, 52(%rsp)          # imm = 0x37E
	movl	36(%rsp), %esi          # 4-byte Reload
	addl	$1, %esi
	movq	16(%rsp), %rdx          # 8-byte Reload
	movl	%esi, (%rdx)
	movl	$897, 52(%rsp)          # imm = 0x381
	movl	36(%rsp), %esi          # 4-byte Reload
	movslq	%esi, %rdi
	movb	(%rax,%rdi), %r8b
	movl	$899, 52(%rsp)          # imm = 0x383
	movzbl	%r8b, %r9d
	movl	dbglvl, %r10d
	movl	$912, 52(%rsp)          # imm = 0x390
	cmpl	$4, %r10d
	movl	%r9d, %r10d
	movl	%r9d, 4(%rsp)           # 4-byte Spill
	movl	%r10d, 12(%rsp)         # 4-byte Spill
	jle	.LBB6_9
# %bb.8:                                # %if.then23
	movabsq	$.L.str.11, %rdi
	movl	4(%rsp), %esi           # 4-byte Reload
	movb	$0, %al
	callq	printf
	movl	4(%rsp), %esi           # 4-byte Reload
	movl	%eax, (%rsp)            # 4-byte Spill
	movl	%esi, 12(%rsp)          # 4-byte Spill
.LBB6_9:                                # %cleanup
	movl	12(%rsp), %eax          # 4-byte Reload
	addq	$56, %rsp
	retq
.Lfunc_end6:
	.size	spec_getc, .Lfunc_end6-spec_getc
	.cfi_endproc
                                        # -- End function
	.globl	spec_ungetc             # -- Begin function spec_ungetc
	.p2align	4, 0x90
	.type	spec_ungetc,@function
spec_ungetc:                            # @spec_ungetc
	.cfi_startproc
# %bb.0:                                # %entry
	subq	$72, %rsp
	.cfi_def_cfa_offset 80
	movb	%dil, %al
	movl	$9999, 68(%rsp)         # imm = 0x270F
	movl	dbglvl, %edi
	movl	$920, 68(%rsp)          # imm = 0x398
	cmpl	$4, %edi
	movb	%al, 67(%rsp)           # 1-byte Spill
	movl	%esi, 60(%rsp)          # 4-byte Spill
	jle	.LBB7_2
# %bb.1:                                # %if.then
	movabsq	$.L.str.15, %rdi
	movl	60(%rsp), %esi          # 4-byte Reload
	movb	$0, %al
	callq	printf
	movl	%eax, 56(%rsp)          # 4-byte Spill
.LBB7_2:                                # %if.end
	movl	60(%rsp), %eax          # 4-byte Reload
	cmpl	$3, %eax
	jle	.LBB7_4
# %bb.3:                                # %if.then2
	movabsq	$.L.str.9, %rsi
	movq	stderr, %rdi
	movl	$927, 68(%rsp)          # imm = 0x39F
	movl	60(%rsp), %edx          # 4-byte Reload
	movb	$0, %al
	callq	fprintf
	xorl	%edi, %edi
	movl	%eax, 52(%rsp)          # 4-byte Spill
	callq	exit
	jmp	.LBB7_11
.LBB7_4:                                # %if.end4
	movabsq	$spec_fd, %rax
	movl	60(%rsp), %ecx          # 4-byte Reload
	movslq	%ecx, %rdx
	imulq	$24, %rdx, %rsi
	addq	%rsi, %rax
	addq	$8, %rax
	movl	(%rax), %edi
	movl	$930, 68(%rsp)          # imm = 0x3A2
	cmpl	$1, %edi
	movq	%rdx, 40(%rsp)          # 8-byte Spill
	movq	%rax, 32(%rsp)          # 8-byte Spill
	movl	%edi, 28(%rsp)          # 4-byte Spill
	jge	.LBB7_6
# %bb.5:                                # %if.then6
	movabsq	$.L.str.16, %rsi
	movq	stderr, %rdi
	movl	$936, 68(%rsp)          # imm = 0x3A8
	movl	28(%rsp), %edx          # 4-byte Reload
	movb	$0, %al
	callq	fprintf
	xorl	%edi, %edi
	movl	%eax, 24(%rsp)          # 4-byte Spill
	callq	exit
	jmp	.LBB7_11
.LBB7_6:                                # %if.end11
	movabsq	$spec_fd, %rax
	movq	40(%rsp), %rcx          # 8-byte Reload
	imulq	$24, %rcx, %rdx
	addq	%rdx, %rax
	addq	$16, %rax
	movq	(%rax), %rax
	movl	$938, 68(%rsp)          # imm = 0x3AA
	movl	28(%rsp), %esi          # 4-byte Reload
	addl	$-1, %esi
	movq	32(%rsp), %rdx          # 8-byte Reload
	movl	%esi, (%rdx)
	movl	$941, 68(%rsp)          # imm = 0x3AD
	movslq	%esi, %rdi
	movb	(%rax,%rdi), %r8b
	movl	$945, 68(%rsp)          # imm = 0x3B1
	movb	67(%rsp), %r9b          # 1-byte Reload
	movzbl	%r9b, %eax
	cmpb	%r9b, %r8b
	movl	%eax, 20(%rsp)          # 4-byte Spill
	je	.LBB7_8
# %bb.7:                                # %if.then22
	movl	$71, %eax
	movl	%eax, %esi
	movl	$1, %eax
	movl	%eax, %edx
	movabsq	$.L.str.17, %rdi
	movq	stderr, %rcx
	movl	$954, 68(%rsp)          # imm = 0x3BA
	callq	fwrite
	xorl	%edi, %edi
	movq	%rax, 8(%rsp)           # 8-byte Spill
	callq	exit
	jmp	.LBB7_11
.LBB7_8:                                # %if.end24
	movl	dbglvl, %eax
	movl	$973, 68(%rsp)          # imm = 0x3CD
	cmpl	$4, %eax
	jle	.LBB7_10
# %bb.9:                                # %if.then27
	xorl	%esi, %esi
	movabsq	$.L.str.11, %rdi
	movb	$0, %al
	callq	printf
	movl	%eax, 4(%rsp)           # 4-byte Spill
.LBB7_10:                               # %if.end29
	movl	20(%rsp), %eax          # 4-byte Reload
	addq	$72, %rsp
	retq
.LBB7_11:                               # %UnifiedUnreachableBlock
.Lfunc_end7:
	.size	spec_ungetc, .Lfunc_end7-spec_ungetc
	.cfi_endproc
                                        # -- End function
	.globl	spec_rewind             # -- Begin function spec_rewind
	.p2align	4, 0x90
	.type	spec_rewind,@function
spec_rewind:                            # @spec_rewind
	.cfi_startproc
# %bb.0:                                # %entry
	xorl	%eax, %eax
	movabsq	$spec_fd, %rcx
	movl	$9999, -4(%rsp)         # imm = 0x270F
	movslq	%edi, %rdx
	imulq	$24, %rdx, %rdx
	addq	%rdx, %rcx
	addq	$8, %rcx
	movl	$0, (%rcx)
	movl	$981, -4(%rsp)          # imm = 0x3D5
	retq
.Lfunc_end8:
	.size	spec_rewind, .Lfunc_end8-spec_rewind
	.cfi_endproc
                                        # -- End function
	.globl	spec_reset              # -- Begin function spec_reset
	.p2align	4, 0x90
	.type	spec_reset,@function
spec_reset:                             # @spec_reset
	.cfi_startproc
# %bb.0:                                # %entry
	subq	$56, %rsp
	.cfi_def_cfa_offset 64
	xorl	%eax, %eax
	movabsq	$spec_fd, %rcx
	movl	$9999, 52(%rsp)         # imm = 0x270F
	movslq	%edi, %rdx
	imulq	$24, %rdx, %rsi
	movq	%rcx, %r8
	addq	%rsi, %r8
	addq	$16, %r8
	movq	(%r8), %rdi
	movl	$983, 52(%rsp)          # imm = 0x3D7
	imulq	$24, %rdx, %rsi
	movq	%rcx, %r8
	addq	%rsi, %r8
	addq	$4, %r8
	movl	(%r8), %r9d
	movl	$986, 52(%rsp)          # imm = 0x3DA
	movslq	%r9d, %rsi
	movq	%rsi, 40(%rsp)          # 8-byte Spill
	movl	%eax, %esi
	movq	40(%rsp), %r10          # 8-byte Reload
	movq	%rdx, 32(%rsp)          # 8-byte Spill
	movq	%r10, %rdx
	movq	%rcx, 24(%rsp)          # 8-byte Spill
	movl	%eax, 20(%rsp)          # 4-byte Spill
	movq	%r8, 8(%rsp)            # 8-byte Spill
	callq	memset
	movq	8(%rsp), %rcx           # 8-byte Reload
	movl	$0, (%rcx)
	movl	$988, 52(%rsp)          # imm = 0x3DC
	movq	32(%rsp), %rdx          # 8-byte Reload
	imulq	$24, %rdx, %rdi
	movq	24(%rsp), %r8           # 8-byte Reload
	addq	%rdi, %r8
	addq	$8, %r8
	movl	$0, (%r8)
	movl	$996, 52(%rsp)          # imm = 0x3E4
	movl	20(%rsp), %eax          # 4-byte Reload
	addq	$56, %rsp
	retq
.Lfunc_end9:
	.size	spec_reset, .Lfunc_end9-spec_reset
	.cfi_endproc
                                        # -- End function
	.globl	spec_write              # -- Begin function spec_write
	.p2align	4, 0x90
	.type	spec_write,@function
spec_write:                             # @spec_write
	.cfi_startproc
# %bb.0:                                # %entry
	subq	$72, %rsp
	.cfi_def_cfa_offset 80
	movl	$9999, 68(%rsp)         # imm = 0x270F
	movl	dbglvl, %eax
	movl	$1004, 68(%rsp)         # imm = 0x3EC
	cmpl	$4, %eax
	movq	%rsi, 56(%rsp)          # 8-byte Spill
	movl	%edi, 52(%rsp)          # 4-byte Spill
	movl	%edx, 48(%rsp)          # 4-byte Spill
	jle	.LBB10_2
# %bb.1:                                # %if.then
	movabsq	$.L.str.18, %rdi
	movl	52(%rsp), %esi          # 4-byte Reload
	movq	56(%rsp), %rdx          # 8-byte Reload
	movl	48(%rsp), %ecx          # 4-byte Reload
	movb	$0, %al
	callq	printf
	movl	%eax, 44(%rsp)          # 4-byte Spill
.LBB10_2:                               # %if.end
	movl	52(%rsp), %eax          # 4-byte Reload
	cmpl	$3, %eax
	jle	.LBB10_4
# %bb.3:                                # %if.then2
	movabsq	$.L.str.19, %rsi
	movq	stderr, %rdi
	movl	$1011, 68(%rsp)         # imm = 0x3F3
	movl	52(%rsp), %edx          # 4-byte Reload
	movb	$0, %al
	callq	fprintf
	xorl	%edi, %edi
	movl	%eax, 40(%rsp)          # 4-byte Spill
	callq	exit
.LBB10_4:                               # %if.end4
	movabsq	$spec_fd, %rax
	movl	52(%rsp), %ecx          # 4-byte Reload
	movslq	%ecx, %rdx
	imulq	$24, %rdx, %rsi
	movq	%rax, %rdi
	addq	%rsi, %rdi
	addq	$16, %rdi
	movq	(%rdi), %rsi
	movl	$1013, 68(%rsp)         # imm = 0x3F5
	imulq	$24, %rdx, %rdi
	movq	%rax, %r8
	addq	%rdi, %r8
	addq	$8, %r8
	movl	(%r8), %r9d
	movl	$1019, 68(%rsp)         # imm = 0x3FB
	movslq	%r9d, %rdi
	addq	%rdi, %rsi
	movl	48(%rsp), %r9d          # 4-byte Reload
	movslq	%r9d, %rdi
	movq	%rdi, 32(%rsp)          # 8-byte Spill
	movq	%rsi, %rdi
	movq	56(%rsp), %rsi          # 8-byte Reload
	movq	32(%rsp), %r10          # 8-byte Reload
	movq	%rdx, 24(%rsp)          # 8-byte Spill
	movq	%r10, %rdx
	movq	%rax, 16(%rsp)          # 8-byte Spill
	movq	%r8, 8(%rsp)            # 8-byte Spill
	callq	memcpy
	movq	24(%rsp), %rax          # 8-byte Reload
	imulq	$24, %rax, %rdx
	movq	16(%rsp), %rsi          # 8-byte Reload
	addq	%rdx, %rsi
	addq	$4, %rsi
	movl	(%rsi), %ecx
	movl	$1021, 68(%rsp)         # imm = 0x3FD
	movl	48(%rsp), %r9d          # 4-byte Reload
	addl	%r9d, %ecx
	movl	%ecx, (%rsi)
	movl	$1022, 68(%rsp)         # imm = 0x3FE
	movq	8(%rsp), %rdx           # 8-byte Reload
	movl	(%rdx), %ecx
	movl	$1024, 68(%rsp)         # imm = 0x400
	addl	%r9d, %ecx
	movl	%ecx, (%rdx)
	movl	$1025, 68(%rsp)         # imm = 0x401
	movl	dbglvl, %ecx
	movl	$1039, 68(%rsp)         # imm = 0x40F
	cmpl	$4, %ecx
	jle	.LBB10_6
# %bb.5:                                # %if.then18
	movabsq	$.L.str.11, %rdi
	movl	48(%rsp), %esi          # 4-byte Reload
	movb	$0, %al
	callq	printf
	movl	%eax, 4(%rsp)           # 4-byte Spill
.LBB10_6:                               # %if.end20
	movl	48(%rsp), %eax          # 4-byte Reload
	addq	$72, %rsp
	retq
.Lfunc_end10:
	.size	spec_write, .Lfunc_end10-spec_write
	.cfi_endproc
                                        # -- End function
	.globl	spec_fwrite             # -- Begin function spec_fwrite
	.p2align	4, 0x90
	.type	spec_fwrite,@function
spec_fwrite:                            # @spec_fwrite
	.cfi_startproc
# %bb.0:                                # %entry
	subq	$88, %rsp
	.cfi_def_cfa_offset 96
	movl	$9999, 84(%rsp)         # imm = 0x270F
	movl	dbglvl, %eax
	movl	$1047, 84(%rsp)         # imm = 0x417
	cmpl	$4, %eax
	movl	%edx, 80(%rsp)          # 4-byte Spill
	movl	%esi, 76(%rsp)          # 4-byte Spill
	movq	%rdi, 64(%rsp)          # 8-byte Spill
	movl	%ecx, 60(%rsp)          # 4-byte Spill
	jle	.LBB11_2
# %bb.1:                                # %if.then
	movabsq	$.L.str.20, %rdi
	movq	64(%rsp), %rsi          # 8-byte Reload
	movl	76(%rsp), %edx          # 4-byte Reload
	movl	80(%rsp), %ecx          # 4-byte Reload
	movl	60(%rsp), %r8d          # 4-byte Reload
	movb	$0, %al
	callq	printf
	movl	%eax, 56(%rsp)          # 4-byte Spill
.LBB11_2:                               # %if.end
	movl	60(%rsp), %eax          # 4-byte Reload
	cmpl	$3, %eax
	jle	.LBB11_4
# %bb.3:                                # %if.then2
	movabsq	$.L.str.21, %rsi
	movq	stderr, %rdi
	movl	$1054, 84(%rsp)         # imm = 0x41E
	movl	60(%rsp), %edx          # 4-byte Reload
	movb	$0, %al
	callq	fprintf
	xorl	%edi, %edi
	movl	%eax, 52(%rsp)          # 4-byte Spill
	callq	exit
.LBB11_4:                               # %if.end4
	movabsq	$spec_fd, %rax
	movl	60(%rsp), %ecx          # 4-byte Reload
	movslq	%ecx, %rdx
	imulq	$24, %rdx, %rsi
	movq	%rax, %rdi
	addq	%rsi, %rdi
	addq	$16, %rdi
	movq	(%rdi), %rsi
	movl	$1056, 84(%rsp)         # imm = 0x420
	imulq	$24, %rdx, %rdi
	movq	%rax, %r8
	addq	%rdi, %r8
	addq	$8, %r8
	movl	(%r8), %r9d
	movl	$1063, 84(%rsp)         # imm = 0x427
	movslq	%r9d, %rdi
	addq	%rdi, %rsi
	movl	80(%rsp), %r9d          # 4-byte Reload
	movl	76(%rsp), %r10d         # 4-byte Reload
	imull	%r10d, %r9d
	movslq	%r9d, %rdi
	movq	%rdi, 40(%rsp)          # 8-byte Spill
	movq	%rsi, %rdi
	movq	64(%rsp), %rsi          # 8-byte Reload
	movq	40(%rsp), %r11          # 8-byte Reload
	movq	%rdx, 32(%rsp)          # 8-byte Spill
	movq	%r11, %rdx
	movq	%rax, 24(%rsp)          # 8-byte Spill
	movq	%r8, 16(%rsp)           # 8-byte Spill
	movl	%r9d, 12(%rsp)          # 4-byte Spill
	callq	memcpy
	movq	32(%rsp), %rax          # 8-byte Reload
	imulq	$24, %rax, %rdx
	movq	24(%rsp), %rsi          # 8-byte Reload
	addq	%rdx, %rsi
	addq	$4, %rsi
	movl	(%rsi), %ecx
	movl	$1065, 84(%rsp)         # imm = 0x429
	movl	12(%rsp), %r9d          # 4-byte Reload
	addl	%r9d, %ecx
	movl	%ecx, (%rsi)
	movl	$1066, 84(%rsp)         # imm = 0x42A
	movq	16(%rsp), %rdx          # 8-byte Reload
	movl	(%rdx), %ecx
	movl	$1068, 84(%rsp)         # imm = 0x42C
	addl	%r9d, %ecx
	movl	%ecx, (%rdx)
	movl	$1069, 84(%rsp)         # imm = 0x42D
	movl	dbglvl, %ecx
	movl	$1081, 84(%rsp)         # imm = 0x439
	cmpl	$4, %ecx
	jle	.LBB11_6
# %bb.5:                                # %if.then20
	movabsq	$.L.str.11, %rdi
	movl	80(%rsp), %esi          # 4-byte Reload
	movb	$0, %al
	callq	printf
	movl	%eax, 8(%rsp)           # 4-byte Spill
.LBB11_6:                               # %if.end22
	movl	80(%rsp), %eax          # 4-byte Reload
	addq	$88, %rsp
	retq
.Lfunc_end11:
	.size	spec_fwrite, .Lfunc_end11-spec_fwrite
	.cfi_endproc
                                        # -- End function
	.globl	spec_putc               # -- Begin function spec_putc
	.p2align	4, 0x90
	.type	spec_putc,@function
spec_putc:                              # @spec_putc
	.cfi_startproc
# %bb.0:                                # %entry
	subq	$24, %rsp
	.cfi_def_cfa_offset 32
	movb	%dil, %al
	movl	$9999, 20(%rsp)         # imm = 0x270F
	movl	dbglvl, %edi
	movl	$1090, 20(%rsp)         # imm = 0x442
	cmpl	$4, %edi
	movb	%al, 19(%rsp)           # 1-byte Spill
	movl	%esi, 12(%rsp)          # 4-byte Spill
	jle	.LBB12_2
# %bb.1:                                # %if.then
	movabsq	$.L.str.22, %rdi
	movb	19(%rsp), %al           # 1-byte Reload
	movzbl	%al, %esi
	movl	12(%rsp), %edx          # 4-byte Reload
	movb	$0, %al
	callq	printf
	movl	%eax, 8(%rsp)           # 4-byte Spill
.LBB12_2:                               # %if.end
	movl	12(%rsp), %eax          # 4-byte Reload
	cmpl	$3, %eax
	jle	.LBB12_4
# %bb.3:                                # %if.then3
	movabsq	$.L.str.19, %rsi
	movq	stderr, %rdi
	movl	$1097, 20(%rsp)         # imm = 0x449
	movl	12(%rsp), %edx          # 4-byte Reload
	movb	$0, %al
	callq	fprintf
	xorl	%edi, %edi
	movl	%eax, 4(%rsp)           # 4-byte Spill
	callq	exit
.LBB12_4:                               # %if.end5
	movabsq	$spec_fd, %rax
	movl	12(%rsp), %ecx          # 4-byte Reload
	movslq	%ecx, %rdx
	imulq	$24, %rdx, %rsi
	movq	%rax, %rdi
	addq	%rsi, %rdi
	addq	$16, %rdi
	movq	(%rdi), %rsi
	movl	$1099, 20(%rsp)         # imm = 0x44B
	imulq	$24, %rdx, %rdi
	movq	%rax, %r8
	addq	%rdi, %r8
	addq	$8, %r8
	movl	(%r8), %r9d
	movl	$1101, 20(%rsp)         # imm = 0x44D
	movl	%r9d, %r10d
	addl	$1, %r10d
	movl	%r10d, (%r8)
	movl	$1104, 20(%rsp)         # imm = 0x450
	movslq	%r9d, %rdi
	movb	19(%rsp), %r11b         # 1-byte Reload
	movb	%r11b, (%rsi,%rdi)
	movl	$1106, 20(%rsp)         # imm = 0x452
	imulq	$24, %rdx, %rdx
	addq	%rdx, %rax
	addq	$4, %rax
	movl	(%rax), %r9d
	movl	$1108, 20(%rsp)         # imm = 0x454
	addl	$1, %r9d
	movl	%r9d, (%rax)
	movl	$1116, 20(%rsp)         # imm = 0x45C
	movzbl	%r11b, %eax
	addq	$24, %rsp
	retq
.Lfunc_end12:
	.size	spec_putc, .Lfunc_end12-spec_putc
	.cfi_endproc
                                        # -- End function
	.globl	main                    # -- Begin function main
	.p2align	4, 0x90
	.type	main,@function
main:                                   # @main
	.cfi_startproc
# %bb.0:                                # %entry
	pushq	%rbp
	.cfi_def_cfa_offset 16
	pushq	%r15
	.cfi_def_cfa_offset 24
	pushq	%r14
	.cfi_def_cfa_offset 32
	pushq	%r13
	.cfi_def_cfa_offset 40
	pushq	%r12
	.cfi_def_cfa_offset 48
	pushq	%rbx
	.cfi_def_cfa_offset 56
	subq	$520, %rsp              # imm = 0x208
	.cfi_def_cfa_offset 576
	.cfi_offset %rbx, -56
	.cfi_offset %r12, -48
	.cfi_offset %r13, -40
	.cfi_offset %r14, -32
	.cfi_offset %r15, -24
	.cfi_offset %rbp, -16
	movl	$64, %eax
	movabsq	$.L.str.23, %rcx
	movl	$9999, 516(%rsp)        # imm = 0x270F
	movq	$10, seedi
	movl	$1122, 516(%rsp)        # imm = 0x462
	cmpl	$1, %edi
	movl	%eax, %edx
	movl	%edi, 512(%rsp)         # 4-byte Spill
	movq	%rsi, 504(%rsp)         # 8-byte Spill
	movq	%rcx, 496(%rsp)         # 8-byte Spill
	movl	%edx, 492(%rsp)         # 4-byte Spill
	movl	%eax, 488(%rsp)         # 4-byte Spill
	jle	.LBB13_4
# %bb.1:                                # %if.end
	movl	$64, %eax
	movq	504(%rsp), %rcx         # 8-byte Reload
	movq	8(%rcx), %rdx
	movl	$1126, 516(%rsp)        # imm = 0x466
	movl	512(%rsp), %esi         # 4-byte Reload
	cmpl	$2, %esi
	movl	%eax, %edi
	movq	%rdx, %r8
	movq	%r8, 496(%rsp)          # 8-byte Spill
	movq	%rdx, 480(%rsp)         # 8-byte Spill
	movl	%edi, 492(%rsp)         # 4-byte Spill
	movl	%eax, 488(%rsp)         # 4-byte Spill
	je	.LBB13_4
# %bb.2:                                # %if.end4
	xorl	%eax, %eax
	movl	%eax, %esi
	movl	$10, %edx
	movq	504(%rsp), %rcx         # 8-byte Reload
	movq	16(%rcx), %rdi
	movl	$1135, 516(%rsp)        # imm = 0x46F
	callq	strtol
	movl	%eax, %edx
	movl	512(%rsp), %r8d         # 4-byte Reload
	cmpl	$3, %r8d
	movl	%edx, %r9d
	movq	480(%rsp), %rax         # 8-byte Reload
	movl	%edx, %r10d
	movl	%edx, 476(%rsp)         # 4-byte Spill
	movl	%r9d, 492(%rsp)         # 4-byte Spill
	movq	%rax, 496(%rsp)         # 8-byte Spill
	movl	%r10d, 488(%rsp)        # 4-byte Spill
	jle	.LBB13_4
# %bb.3:                                # %if.then6
	xorl	%eax, %eax
	movl	%eax, %esi
	movl	$10, %edx
	movq	504(%rsp), %rcx         # 8-byte Reload
	movq	24(%rcx), %rdi
	movl	$1145, 516(%rsp)        # imm = 0x479
	callq	strtol
	movl	%eax, %edx
	movl	476(%rsp), %r8d         # 4-byte Reload
	movq	480(%rsp), %rax         # 8-byte Reload
	movq	%rax, 496(%rsp)         # 8-byte Spill
	movl	%r8d, 492(%rsp)         # 4-byte Spill
	movl	%edx, 488(%rsp)         # 4-byte Spill
.LBB13_4:                               # %if.end9
	movl	488(%rsp), %eax         # 4-byte Reload
	movq	496(%rsp), %rcx         # 8-byte Reload
	movl	492(%rsp), %edx         # 4-byte Reload
	movl	%edx, %esi
	shll	$20, %esi
	movl	%esi, spec_fd
	movl	$1148, 516(%rsp)        # imm = 0x47C
	shll	$20, %eax
	movl	%eax, spec_fd+24
	movl	$1150, 516(%rsp)        # imm = 0x47E
	movl	%esi, spec_fd+48
	movl	$1152, 516(%rsp)        # imm = 0x480
	movl	%esi, 472(%rsp)         # 4-byte Spill
	movq	%rcx, 464(%rsp)         # 8-byte Spill
	movl	%edx, 460(%rsp)         # 4-byte Spill
	callq	spec_init
	movl	dbglvl, %edx
	movl	$1158, 516(%rsp)        # imm = 0x486
	cmpl	$2, %edx
	movl	%eax, 456(%rsp)         # 4-byte Spill
	jle	.LBB13_6
# %bb.5:                                # %if.then15
	movabsq	$.Lstr.43, %rdi
	callq	puts
	movl	%eax, 452(%rsp)         # 4-byte Spill
.LBB13_6:                               # %if.end17
	xorl	%edi, %edi
	movq	464(%rsp), %rsi         # 8-byte Reload
	movl	472(%rsp), %edx         # 4-byte Reload
	callq	spec_load
	movl	dbglvl, %edx
	movl	$1163, 516(%rsp)        # imm = 0x48B
	cmpl	$3, %edx
	movl	%eax, 448(%rsp)         # 4-byte Spill
	jle	.LBB13_8
# %bb.7:                                # %if.then21
	movabsq	$.L.str.25, %rdi
	movl	spec_fd+4, %esi
	movl	$1179, 516(%rsp)        # imm = 0x49B
	movb	$0, %al
	callq	printf
	movl	%eax, 444(%rsp)         # 4-byte Spill
.LBB13_8:                               # %if.end23
	movl	460(%rsp), %eax         # 4-byte Reload
	shll	$10, %eax
	movslq	%eax, %rdi
	callq	malloc
	cmpq	$0, %rax
	movq	%rax, 432(%rsp)         # 8-byte Spill
	jne	.LBB13_10
# %bb.9:                                # %if.then28
	movabsq	$.Lstr.42, %rdi
	callq	puts
	xorl	%edi, %edi
	movl	%eax, 428(%rsp)         # 4-byte Spill
	callq	exit
	jmp	.LBB13_89
.LBB13_10:                              # %if.end30
	movl	460(%rsp), %eax         # 4-byte Reload
	cmpl	$0, %eax
	setg	%cl
	testb	$1, %cl
	movb	%cl, 427(%rsp)          # 1-byte Spill
	jne	.LBB13_12
# %bb.11:                               # %for.end.thread
	movb	$0, smallMode
	movl	$1180, 516(%rsp)        # imm = 0x49C
	movl	$0, verbosity
	movl	$1181, 516(%rsp)        # imm = 0x49D
	movl	$9, blockSize100k
	movl	$1183, 516(%rsp)        # imm = 0x49F
	movl	$30, workFactor
	movl	$1187, 516(%rsp)        # imm = 0x4A3
	jmp	.LBB13_33
.LBB13_12:                              # %for.body.lr.ph
	xorl	%eax, %eax
	movl	%eax, %ecx
	movl	$1027, %eax             # imm = 0x403
	movl	%eax, %edx
	movq	spec_fd+16, %rsi
	movl	$1234, 516(%rsp)        # imm = 0x4D2
	movl	472(%rsp), %eax         # 4-byte Reload
	movslq	%eax, %rdi
	cmpq	$1027, %rdi             # imm = 0x403
	movq	%rdx, %r8
	cmovgq	%rdi, %r8
	addq	$-1, %r8
	movq	%r8, %rax
	xorl	%r9d, %r9d
	movq	%rdx, 416(%rsp)         # 8-byte Spill
	movl	%r9d, %edx
	movq	416(%rsp), %r8          # 8-byte Reload
	divq	%r8
	addq	$1, %rax
	cmpq	$16, %rax
	movq	%rcx, %r10
	movq	%r10, 408(%rsp)         # 8-byte Spill
	movq	%rdi, 400(%rsp)         # 8-byte Spill
	movq	%rsi, 392(%rsp)         # 8-byte Spill
	movq	%rax, 384(%rsp)         # 8-byte Spill
	movq	%rcx, 376(%rsp)         # 8-byte Spill
	jb	.LBB13_16
# %bb.13:                               # %vector.ph
	xorl	%eax, %eax
	movl	%eax, %ecx
	movabsq	$36028797018963952, %rdx # imm = 0x7FFFFFFFFFFFF0
	movq	384(%rsp), %rsi         # 8-byte Reload
	andq	%rdx, %rsi
	imulq	$1027, %rsi, %rdx       # imm = 0x403
	movq	%rdx, 368(%rsp)         # 8-byte Spill
	movq	%rsi, 360(%rsp)         # 8-byte Spill
	movq	%rcx, 352(%rsp)         # 8-byte Spill
.LBB13_14:                              # %vector.body
                                        # =>This Inner Loop Header: Depth=1
	movq	352(%rsp), %rax         # 8-byte Reload
	imulq	$1027, %rax, %rcx       # imm = 0x403
	movq	392(%rsp), %rdx         # 8-byte Reload
	movzbl	(%rdx,%rcx), %esi
	movl	$1235, 516(%rsp)        # imm = 0x4D3
	movzbl	1027(%rdx,%rcx), %edi
	movl	$1236, 516(%rsp)        # imm = 0x4D4
	movzbl	2054(%rdx,%rcx), %r8d
	movl	$1237, 516(%rsp)        # imm = 0x4D5
	movzbl	3081(%rdx,%rcx), %r9d
	movl	$1238, 516(%rsp)        # imm = 0x4D6
	movzbl	4108(%rdx,%rcx), %r10d
	movl	$1239, 516(%rsp)        # imm = 0x4D7
	movzbl	5135(%rdx,%rcx), %r11d
	movl	$1240, 516(%rsp)        # imm = 0x4D8
	movzbl	6162(%rdx,%rcx), %ebx
	movl	$1241, 516(%rsp)        # imm = 0x4D9
	movzbl	7189(%rdx,%rcx), %ebp
	movl	$1242, 516(%rsp)        # imm = 0x4DA
	movzbl	8216(%rdx,%rcx), %r14d
	movl	$1243, 516(%rsp)        # imm = 0x4DB
	movzbl	9243(%rdx,%rcx), %r15d
	movl	$1244, 516(%rsp)        # imm = 0x4DC
	movzbl	10270(%rdx,%rcx), %r12d
	movl	$1245, 516(%rsp)        # imm = 0x4DD
	movzbl	11297(%rdx,%rcx), %r13d
	movl	$1246, 516(%rsp)        # imm = 0x4DE
	movzbl	12324(%rdx,%rcx), %edx
	movl	$1247, 516(%rsp)        # imm = 0x4DF
	movq	%rax, 344(%rsp)         # 8-byte Spill
	movq	392(%rsp), %rax         # 8-byte Reload
	movzbl	13351(%rax,%rcx), %eax
	movl	$1248, 516(%rsp)        # imm = 0x4E0
	movq	%rcx, 336(%rsp)         # 8-byte Spill
	movq	392(%rsp), %rcx         # 8-byte Reload
	movl	%esi, 332(%rsp)         # 4-byte Spill
	movq	336(%rsp), %rsi         # 8-byte Reload
	movzbl	14378(%rcx,%rsi), %esi
	movl	$1249, 516(%rsp)        # imm = 0x4E1
	movl	%esi, 328(%rsp)         # 4-byte Spill
	movq	336(%rsp), %rsi         # 8-byte Reload
	movzbl	15405(%rcx,%rsi), %esi
	movl	$1268, 516(%rsp)        # imm = 0x4F4
	movl	332(%rsp), %ecx         # 4-byte Reload
	movd	%ecx, %xmm0
	movd	%edi, %xmm1
	punpcklbw	%xmm1, %xmm0    # xmm0 = xmm0[0],xmm1[0],xmm0[1],xmm1[1],xmm0[2],xmm1[2],xmm0[3],xmm1[3],xmm0[4],xmm1[4],xmm0[5],xmm1[5],xmm0[6],xmm1[6],xmm0[7],xmm1[7]
	movd	%r8d, %xmm1
	movd	%r9d, %xmm2
	punpcklbw	%xmm2, %xmm1    # xmm1 = xmm1[0],xmm2[0],xmm1[1],xmm2[1],xmm1[2],xmm2[2],xmm1[3],xmm2[3],xmm1[4],xmm2[4],xmm1[5],xmm2[5],xmm1[6],xmm2[6],xmm1[7],xmm2[7]
	punpcklwd	%xmm1, %xmm0    # xmm0 = xmm0[0],xmm1[0],xmm0[1],xmm1[1],xmm0[2],xmm1[2],xmm0[3],xmm1[3]
	movd	%r10d, %xmm1
	movd	%r11d, %xmm2
	punpcklbw	%xmm2, %xmm1    # xmm1 = xmm1[0],xmm2[0],xmm1[1],xmm2[1],xmm1[2],xmm2[2],xmm1[3],xmm2[3],xmm1[4],xmm2[4],xmm1[5],xmm2[5],xmm1[6],xmm2[6],xmm1[7],xmm2[7]
	movd	%ebx, %xmm2
	movd	%ebp, %xmm3
	punpcklbw	%xmm3, %xmm2    # xmm2 = xmm2[0],xmm3[0],xmm2[1],xmm3[1],xmm2[2],xmm3[2],xmm2[3],xmm3[3],xmm2[4],xmm3[4],xmm2[5],xmm3[5],xmm2[6],xmm3[6],xmm2[7],xmm3[7]
	punpcklwd	%xmm2, %xmm1    # xmm1 = xmm1[0],xmm2[0],xmm1[1],xmm2[1],xmm1[2],xmm2[2],xmm1[3],xmm2[3]
	punpckldq	%xmm1, %xmm0    # xmm0 = xmm0[0],xmm1[0],xmm0[1],xmm1[1]
	movd	%r14d, %xmm1
	movd	%r15d, %xmm2
	punpcklbw	%xmm2, %xmm1    # xmm1 = xmm1[0],xmm2[0],xmm1[1],xmm2[1],xmm1[2],xmm2[2],xmm1[3],xmm2[3],xmm1[4],xmm2[4],xmm1[5],xmm2[5],xmm1[6],xmm2[6],xmm1[7],xmm2[7]
	movd	%r12d, %xmm2
	movd	%r13d, %xmm3
	punpcklbw	%xmm3, %xmm2    # xmm2 = xmm2[0],xmm3[0],xmm2[1],xmm3[1],xmm2[2],xmm3[2],xmm2[3],xmm3[3],xmm2[4],xmm3[4],xmm2[5],xmm3[5],xmm2[6],xmm3[6],xmm2[7],xmm3[7]
	punpcklwd	%xmm2, %xmm1    # xmm1 = xmm1[0],xmm2[0],xmm1[1],xmm2[1],xmm1[2],xmm2[2],xmm1[3],xmm2[3]
	movd	%edx, %xmm2
	movd	%eax, %xmm3
	punpcklbw	%xmm3, %xmm2    # xmm2 = xmm2[0],xmm3[0],xmm2[1],xmm3[1],xmm2[2],xmm3[2],xmm2[3],xmm3[3],xmm2[4],xmm3[4],xmm2[5],xmm3[5],xmm2[6],xmm3[6],xmm2[7],xmm3[7]
	movl	328(%rsp), %eax         # 4-byte Reload
	movd	%eax, %xmm3
	movd	%esi, %xmm4
	punpcklbw	%xmm4, %xmm3    # xmm3 = xmm3[0],xmm4[0],xmm3[1],xmm4[1],xmm3[2],xmm4[2],xmm3[3],xmm4[3],xmm3[4],xmm4[4],xmm3[5],xmm4[5],xmm3[6],xmm4[6],xmm3[7],xmm4[7]
	punpcklwd	%xmm3, %xmm2    # xmm2 = xmm2[0],xmm3[0],xmm2[1],xmm3[1],xmm2[2],xmm3[2],xmm2[3],xmm3[3]
	punpckldq	%xmm2, %xmm1    # xmm1 = xmm1[0],xmm2[0],xmm1[1],xmm2[1]
	punpcklqdq	%xmm1, %xmm0    # xmm0 = xmm0[0],xmm1[0]
	movq	432(%rsp), %rsi         # 8-byte Reload
	movq	344(%rsp), %rdi         # 8-byte Reload
	movdqu	%xmm0, (%rsi,%rdi)
	movl	$1281, 516(%rsp)        # imm = 0x501
	addq	$16, %rdi
	movq	360(%rsp), %rsi         # 8-byte Reload
	cmpq	%rsi, %rdi
	movq	%rdi, 352(%rsp)         # 8-byte Spill
	jne	.LBB13_14
# %bb.15:                               # %middle.block
	movq	384(%rsp), %rax         # 8-byte Reload
	movq	360(%rsp), %rcx         # 8-byte Reload
	cmpq	%rcx, %rax
	movq	368(%rsp), %rdx         # 8-byte Reload
	movq	%rcx, 408(%rsp)         # 8-byte Spill
	movq	%rdx, 376(%rsp)         # 8-byte Spill
	je	.LBB13_18
.LBB13_16:                              # %for.body.preheader
	movq	376(%rsp), %rax         # 8-byte Reload
	movq	408(%rsp), %rcx         # 8-byte Reload
	movq	%rcx, 320(%rsp)         # 8-byte Spill
	movq	%rax, 312(%rsp)         # 8-byte Spill
.LBB13_17:                              # %for.body
                                        # =>This Inner Loop Header: Depth=1
	movq	312(%rsp), %rax         # 8-byte Reload
	movq	320(%rsp), %rcx         # 8-byte Reload
	movq	392(%rsp), %rdx         # 8-byte Reload
	movb	(%rdx,%rax), %sil
	movl	$1283, 516(%rsp)        # imm = 0x503
	movq	432(%rsp), %rdi         # 8-byte Reload
	movb	%sil, (%rdi,%rcx)
	movl	$1287, 516(%rsp)        # imm = 0x507
	addq	$1, %rcx
	imulq	$1027, %rcx, %r8        # imm = 0x403
	addq	$1027, %rax             # imm = 0x403
	movq	400(%rsp), %r9          # 8-byte Reload
	cmpq	%r9, %r8
	movq	%rcx, 320(%rsp)         # 8-byte Spill
	movq	%rax, 312(%rsp)         # 8-byte Spill
	jl	.LBB13_17
.LBB13_18:                              # %for.end
	movb	$0, smallMode
	movl	$1288, 516(%rsp)        # imm = 0x508
	movl	$0, verbosity
	movl	$1289, 516(%rsp)        # imm = 0x509
	movl	$9, blockSize100k
	movl	$1290, 516(%rsp)        # imm = 0x50A
	movl	$30, workFactor
	movl	$1293, 516(%rsp)        # imm = 0x50D
	movb	427(%rsp), %al          # 1-byte Reload
	testb	$1, %al
	jne	.LBB13_19
	jmp	.LBB13_33
.LBB13_19:                              # %for.end.split.us
	movl	472(%rsp), %eax         # 4-byte Reload
	movslq	%eax, %rcx
	movl	dbglvl, %edx
	movl	$1300, 516(%rsp)        # imm = 0x514
	cmpl	$2, %edx
	movq	%rcx, 304(%rsp)         # 8-byte Spill
	jle	.LBB13_21
# %bb.20:                               # %if.then46.us
	movl	$5, %esi
	movabsq	$.L.str.27, %rdi
	movb	$0, %al
	callq	printf
	movl	%eax, 300(%rsp)         # 4-byte Spill
.LBB13_21:                              # %if.end48.us
	xorl	%edi, %edi
	movl	$1, %esi
	movl	$5, blockSize100k
	movl	$1304, 516(%rsp)        # imm = 0x518
	callq	compressStream
	movl	dbglvl, %esi
	movl	$1308, 516(%rsp)        # imm = 0x51C
	cmpl	$3, %esi
	jle	.LBB13_23
# %bb.22:                               # %if.then52.us
	movabsq	$.L.str.28, %rdi
	movl	spec_fd+28, %esi
	movl	$1313, 516(%rsp)        # imm = 0x521
	movb	$0, %al
	callq	printf
	movl	%eax, 296(%rsp)         # 4-byte Spill
.LBB13_23:                              # %if.end54.us
	xorl	%esi, %esi
	movq	spec_fd+16, %rdi
	movl	$1315, 516(%rsp)        # imm = 0x523
	movl	spec_fd+4, %eax
	movl	$1319, 516(%rsp)        # imm = 0x527
	movslq	%eax, %rdx
	callq	memset
	movl	$0, spec_fd+4
	movl	$1321, 516(%rsp)        # imm = 0x529
	movl	$0, spec_fd+8
	movl	$1323, 516(%rsp)        # imm = 0x52B
	movl	$0, spec_fd+32
	movl	$1324, 516(%rsp)        # imm = 0x52C
	movl	dbglvl, %eax
	movl	$1330, 516(%rsp)        # imm = 0x532
	cmpl	$2, %eax
	jle	.LBB13_25
# %bb.24:                               # %if.then60.us
	movabsq	$.Lstr.41, %rdi
	callq	puts
	movl	%eax, 292(%rsp)         # 4-byte Spill
.LBB13_25:                              # %if.end62.us
	movl	$1, %edi
	xorl	%esi, %esi
	movl	$0, blockSize100k
	movl	$1334, 516(%rsp)        # imm = 0x536
	callq	uncompressStream
	movl	dbglvl, %esi
	movl	$1338, 516(%rsp)        # imm = 0x53A
	cmpl	$3, %esi
	movb	%al, 291(%rsp)          # 1-byte Spill
	jle	.LBB13_31
# %bb.26:                               # %if.then66.us
	movabsq	$.L.str.30, %rdi
	movl	spec_fd+4, %esi
	movl	$1350, 516(%rsp)        # imm = 0x546
	movb	$0, %al
	callq	printf
	movl	%eax, 284(%rsp)         # 4-byte Spill
	jmp	.LBB13_31
.LBB13_27:                              # %for.cond69.us
                                        #   in Loop: Header=BB13_30 Depth=1
	movq	272(%rsp), %rax         # 8-byte Reload
	imulq	$1027, %rax, %rcx       # imm = 0x403
	movl	268(%rsp), %edx         # 4-byte Reload
	imull	$1027, %edx, %esi       # imm = 0x403
	movq	304(%rsp), %rdi         # 8-byte Reload
	cmpq	%rdi, %rcx
	movq	%rax, 256(%rsp)         # 8-byte Spill
	movl	%edx, 252(%rsp)         # 4-byte Spill
	movl	%esi, 248(%rsp)         # 4-byte Spill
	jl	.LBB13_30
	jmp	.LBB13_32
.LBB13_28:                              # %if.then93.us
	movabsq	$.Lstr.40, %rdi
	callq	puts
	movl	%eax, 244(%rsp)         # 4-byte Spill
.LBB13_29:                              # %if.end95.us
	xorl	%esi, %esi
	movq	spec_fd+40, %rdi
	movl	$1352, 516(%rsp)        # imm = 0x548
	movl	spec_fd+28, %eax
	movl	$1356, 516(%rsp)        # imm = 0x54C
	movslq	%eax, %rdx
	callq	memset
	movl	$0, spec_fd+28
	movl	$1358, 516(%rsp)        # imm = 0x54E
	movl	$0, spec_fd+32
	movl	$1360, 516(%rsp)        # imm = 0x550
	movl	$0, spec_fd+8
	movl	$1361, 516(%rsp)        # imm = 0x551
	movl	dbglvl, %eax
	movl	$1370, 516(%rsp)        # imm = 0x55A
	cmpl	$2, %eax
	jg	.LBB13_45
	jmp	.LBB13_46
.LBB13_30:                              # %for.body74.us
                                        # =>This Inner Loop Header: Depth=1
	movl	252(%rsp), %eax         # 4-byte Reload
	movl	248(%rsp), %ecx         # 4-byte Reload
	movq	256(%rsp), %rdx         # 8-byte Reload
	movq	432(%rsp), %rsi         # 8-byte Reload
	movb	(%rsi,%rdx), %dil
	movl	$1374, 516(%rsp)        # imm = 0x55E
	movl	%ecx, %ecx
	movl	%ecx, %r8d
	movq	232(%rsp), %r9          # 8-byte Reload
	movb	(%r9,%r8), %r10b
	movl	$1373, 516(%rsp)        # imm = 0x55D
	addq	$1, %rdx
	addl	$1, %eax
	cmpb	%r10b, %dil
	movq	%rdx, 272(%rsp)         # 8-byte Spill
	movl	%eax, 268(%rsp)         # 4-byte Spill
	je	.LBB13_27
	jmp	.LBB13_40
.LBB13_31:                              # %for.body74.lr.ph.us
	xorl	%eax, %eax
	movl	%eax, %ecx
	xorl	%eax, %eax
	movq	spec_fd+16, %rdx
	movl	$1379, 516(%rsp)        # imm = 0x563
	movl	%eax, %esi
	movq	%rdx, 232(%rsp)         # 8-byte Spill
	movl	%esi, 248(%rsp)         # 4-byte Spill
	movq	%rcx, 256(%rsp)         # 8-byte Spill
	movl	%eax, 252(%rsp)         # 4-byte Spill
	jmp	.LBB13_30
.LBB13_32:                              # %for.cond69.for.end89_crit_edge.us
	movl	dbglvl, %eax
	movl	$1382, 516(%rsp)        # imm = 0x566
	cmpl	$3, %eax
	jg	.LBB13_28
	jmp	.LBB13_29
.LBB13_33:                              # %for.end.split
	movl	dbglvl, %eax
	movl	$1388, 516(%rsp)        # imm = 0x56C
	cmpl	$2, %eax
	jle	.LBB13_35
# %bb.34:                               # %if.then46
	movl	$5, %esi
	movabsq	$.L.str.27, %rdi
	movb	$0, %al
	callq	printf
	movl	%eax, 228(%rsp)         # 4-byte Spill
.LBB13_35:                              # %if.end48
	xorl	%edi, %edi
	movl	$1, %esi
	movl	$5, blockSize100k
	movl	$1390, 516(%rsp)        # imm = 0x56E
	callq	compressStream
	movl	dbglvl, %esi
	movl	$1394, 516(%rsp)        # imm = 0x572
	cmpl	$3, %esi
	jle	.LBB13_37
# %bb.36:                               # %if.then52
	movabsq	$.L.str.28, %rdi
	movl	spec_fd+28, %esi
	movl	$1399, 516(%rsp)        # imm = 0x577
	movb	$0, %al
	callq	printf
	movl	%eax, 224(%rsp)         # 4-byte Spill
.LBB13_37:                              # %if.end54
	xorl	%esi, %esi
	movq	spec_fd+16, %rdi
	movl	$1401, 516(%rsp)        # imm = 0x579
	movl	spec_fd+4, %eax
	movl	$1405, 516(%rsp)        # imm = 0x57D
	movslq	%eax, %rdx
	callq	memset
	movl	$0, spec_fd+4
	movl	$1407, 516(%rsp)        # imm = 0x57F
	movl	$0, spec_fd+8
	movl	$1409, 516(%rsp)        # imm = 0x581
	movl	$0, spec_fd+32
	movl	$1410, 516(%rsp)        # imm = 0x582
	movl	dbglvl, %eax
	movl	$1416, 516(%rsp)        # imm = 0x588
	cmpl	$2, %eax
	jle	.LBB13_39
# %bb.38:                               # %if.then60
	movabsq	$.Lstr.41, %rdi
	callq	puts
	movl	%eax, 220(%rsp)         # 4-byte Spill
.LBB13_39:                              # %if.end62
	movl	$1, %edi
	xorl	%esi, %esi
	movl	$0, blockSize100k
	movl	$1418, 516(%rsp)        # imm = 0x58A
	callq	uncompressStream
	movl	dbglvl, %esi
	movl	$1426, 516(%rsp)        # imm = 0x592
	cmpl	$3, %esi
	movb	%al, 219(%rsp)          # 1-byte Spill
	jg	.LBB13_41
	jmp	.LBB13_43
.LBB13_40:                              # %if.then84
	movabsq	$.L.str.31, %rdi
	movl	460(%rsp), %esi         # 4-byte Reload
	movb	$0, %al
	callq	printf
	xorl	%edi, %edi
	movl	%eax, 212(%rsp)         # 4-byte Spill
	callq	exit
	jmp	.LBB13_89
.LBB13_41:                              # %for.end89
	movabsq	$.L.str.30, %rdi
	movl	spec_fd+4, %esi
	movl	$1429, 516(%rsp)        # imm = 0x595
	movb	$0, %al
	callq	printf
	movl	dbglvl, %esi
	movl	$1436, 516(%rsp)        # imm = 0x59C
	cmpl	$3, %esi
	movl	%eax, 208(%rsp)         # 4-byte Spill
	jle	.LBB13_43
# %bb.42:                               # %if.then93
	movabsq	$.Lstr.40, %rdi
	callq	puts
	movl	%eax, 204(%rsp)         # 4-byte Spill
.LBB13_43:                              # %if.end95
	xorl	%esi, %esi
	movq	spec_fd+40, %rdi
	movl	$1438, 516(%rsp)        # imm = 0x59E
	movl	spec_fd+28, %eax
	movl	$1442, 516(%rsp)        # imm = 0x5A2
	movslq	%eax, %rdx
	callq	memset
	movl	$0, spec_fd+28
	movl	$1444, 516(%rsp)        # imm = 0x5A4
	movl	$0, spec_fd+32
	movl	$1446, 516(%rsp)        # imm = 0x5A6
	movl	$0, spec_fd+8
	movl	$1447, 516(%rsp)        # imm = 0x5A7
	movl	dbglvl, %eax
	movl	$1451, 516(%rsp)        # imm = 0x5AB
	cmpl	$2, %eax
	jg	.LBB13_71
	jmp	.LBB13_72
.LBB13_44:                              # %for.end99
	movabsq	$.L.str.33, %rdi
	movl	$0, spec_fd+28
	movl	$1453, 516(%rsp)        # imm = 0x5AD
	movl	$0, spec_fd+32
	movl	$1455, 516(%rsp)        # imm = 0x5AF
	movl	$0, spec_fd+8
	movl	$1463, 516(%rsp)        # imm = 0x5B7
	movl	460(%rsp), %esi         # 4-byte Reload
	movb	$0, %al
	callq	printf
	xorl	%esi, %esi
	movl	%eax, 200(%rsp)         # 4-byte Spill
	movl	%esi, %eax
	addq	$520, %rsp              # imm = 0x208
	popq	%rbx
	popq	%r12
	popq	%r13
	popq	%r14
	popq	%r15
	popq	%rbp
	retq
.LBB13_45:                              # %if.then46.us.1
	movl	$7, %esi
	movabsq	$.L.str.27, %rdi
	movb	$0, %al
	callq	printf
	movl	%eax, 196(%rsp)         # 4-byte Spill
.LBB13_46:                              # %if.end48.us.1
	xorl	%edi, %edi
	movl	$1, %esi
	movl	$7, blockSize100k
	movl	$1465, 516(%rsp)        # imm = 0x5B9
	callq	compressStream
	movl	dbglvl, %esi
	movl	$1469, 516(%rsp)        # imm = 0x5BD
	cmpl	$3, %esi
	jle	.LBB13_48
# %bb.47:                               # %if.then52.us.1
	movabsq	$.L.str.28, %rdi
	movl	spec_fd+28, %esi
	movl	$1474, 516(%rsp)        # imm = 0x5C2
	movb	$0, %al
	callq	printf
	movl	%eax, 192(%rsp)         # 4-byte Spill
.LBB13_48:                              # %if.end54.us.1
	xorl	%esi, %esi
	movq	spec_fd+16, %rdi
	movl	$1476, 516(%rsp)        # imm = 0x5C4
	movl	spec_fd+4, %eax
	movl	$1480, 516(%rsp)        # imm = 0x5C8
	movslq	%eax, %rdx
	callq	memset
	movl	$0, spec_fd+4
	movl	$1482, 516(%rsp)        # imm = 0x5CA
	movl	$0, spec_fd+8
	movl	$1484, 516(%rsp)        # imm = 0x5CC
	movl	$0, spec_fd+32
	movl	$1485, 516(%rsp)        # imm = 0x5CD
	movl	dbglvl, %eax
	movl	$1491, 516(%rsp)        # imm = 0x5D3
	cmpl	$2, %eax
	jle	.LBB13_50
# %bb.49:                               # %if.then60.us.1
	movabsq	$.Lstr.41, %rdi
	callq	puts
	movl	%eax, 188(%rsp)         # 4-byte Spill
.LBB13_50:                              # %if.end62.us.1
	movl	$1, %edi
	xorl	%esi, %esi
	movl	$0, blockSize100k
	movl	$1493, 516(%rsp)        # imm = 0x5D5
	callq	uncompressStream
	movl	dbglvl, %esi
	movl	$1497, 516(%rsp)        # imm = 0x5D9
	cmpl	$3, %esi
	movb	%al, 187(%rsp)          # 1-byte Spill
	jle	.LBB13_52
# %bb.51:                               # %if.then66.us.1
	movabsq	$.L.str.30, %rdi
	movl	spec_fd+4, %esi
	movl	$1502, 516(%rsp)        # imm = 0x5DE
	movb	$0, %al
	callq	printf
	movl	%eax, 180(%rsp)         # 4-byte Spill
.LBB13_52:                              # %for.body74.lr.ph.us.1
	xorl	%eax, %eax
	movl	%eax, %ecx
	xorl	%eax, %eax
	movq	spec_fd+16, %rdx
	movl	$1511, 516(%rsp)        # imm = 0x5E7
	movl	%eax, %esi
	movq	%rdx, 168(%rsp)         # 8-byte Spill
	movl	%esi, 164(%rsp)         # 4-byte Spill
	movq	%rcx, 152(%rsp)         # 8-byte Spill
	movl	%eax, 148(%rsp)         # 4-byte Spill
.LBB13_53:                              # %for.body74.us.1
                                        # =>This Inner Loop Header: Depth=1
	movl	148(%rsp), %eax         # 4-byte Reload
	movl	164(%rsp), %ecx         # 4-byte Reload
	movq	152(%rsp), %rdx         # 8-byte Reload
	movq	432(%rsp), %rsi         # 8-byte Reload
	movb	(%rsi,%rdx), %dil
	movl	$1514, 516(%rsp)        # imm = 0x5EA
	movl	%ecx, %ecx
	movl	%ecx, %r8d
	movq	168(%rsp), %r9          # 8-byte Reload
	movb	(%r9,%r8), %r10b
	movl	$1520, 516(%rsp)        # imm = 0x5F0
	addq	$1, %rdx
	addl	$1, %eax
	cmpb	%r10b, %dil
	movq	%rdx, 136(%rsp)         # 8-byte Spill
	movl	%eax, 132(%rsp)         # 4-byte Spill
	jne	.LBB13_40
# %bb.54:                               # %for.cond69.us.1
                                        #   in Loop: Header=BB13_53 Depth=1
	movq	136(%rsp), %rax         # 8-byte Reload
	imulq	$1027, %rax, %rcx       # imm = 0x403
	movl	132(%rsp), %edx         # 4-byte Reload
	imull	$1027, %edx, %esi       # imm = 0x403
	movq	304(%rsp), %rdi         # 8-byte Reload
	cmpq	%rdi, %rcx
	movq	%rax, 152(%rsp)         # 8-byte Spill
	movl	%edx, 148(%rsp)         # 4-byte Spill
	movl	%esi, 164(%rsp)         # 4-byte Spill
	jl	.LBB13_53
# %bb.55:                               # %for.cond69.for.end89_crit_edge.us.1
	movl	dbglvl, %eax
	movl	$1527, 516(%rsp)        # imm = 0x5F7
	cmpl	$3, %eax
	jle	.LBB13_57
# %bb.56:                               # %if.then93.us.1
	movabsq	$.Lstr.40, %rdi
	callq	puts
	movl	%eax, 128(%rsp)         # 4-byte Spill
.LBB13_57:                              # %if.end95.us.1
	xorl	%esi, %esi
	movq	spec_fd+40, %rdi
	movl	$1529, 516(%rsp)        # imm = 0x5F9
	movl	spec_fd+28, %eax
	movl	$1533, 516(%rsp)        # imm = 0x5FD
	movslq	%eax, %rdx
	callq	memset
	movl	$0, spec_fd+28
	movl	$1535, 516(%rsp)        # imm = 0x5FF
	movl	$0, spec_fd+32
	movl	$1537, 516(%rsp)        # imm = 0x601
	movl	$0, spec_fd+8
	movl	$1538, 516(%rsp)        # imm = 0x602
	movl	dbglvl, %eax
	movl	$1544, 516(%rsp)        # imm = 0x608
	cmpl	$2, %eax
	jle	.LBB13_59
# %bb.58:                               # %if.then46.us.2
	movl	$9, %esi
	movabsq	$.L.str.27, %rdi
	movb	$0, %al
	callq	printf
	movl	%eax, 124(%rsp)         # 4-byte Spill
.LBB13_59:                              # %if.end48.us.2
	xorl	%edi, %edi
	movl	$1, %esi
	movl	$9, blockSize100k
	movl	$1546, 516(%rsp)        # imm = 0x60A
	callq	compressStream
	movl	dbglvl, %esi
	movl	$1550, 516(%rsp)        # imm = 0x60E
	cmpl	$3, %esi
	jle	.LBB13_61
# %bb.60:                               # %if.then52.us.2
	movabsq	$.L.str.28, %rdi
	movl	spec_fd+28, %esi
	movl	$1555, 516(%rsp)        # imm = 0x613
	movb	$0, %al
	callq	printf
	movl	%eax, 120(%rsp)         # 4-byte Spill
.LBB13_61:                              # %if.end54.us.2
	xorl	%esi, %esi
	movq	spec_fd+16, %rdi
	movl	$1557, 516(%rsp)        # imm = 0x615
	movl	spec_fd+4, %eax
	movl	$1561, 516(%rsp)        # imm = 0x619
	movslq	%eax, %rdx
	callq	memset
	movl	$0, spec_fd+4
	movl	$1563, 516(%rsp)        # imm = 0x61B
	movl	$0, spec_fd+8
	movl	$1565, 516(%rsp)        # imm = 0x61D
	movl	$0, spec_fd+32
	movl	$1566, 516(%rsp)        # imm = 0x61E
	movl	dbglvl, %eax
	movl	$1572, 516(%rsp)        # imm = 0x624
	cmpl	$2, %eax
	jle	.LBB13_63
# %bb.62:                               # %if.then60.us.2
	movabsq	$.Lstr.41, %rdi
	callq	puts
	movl	%eax, 116(%rsp)         # 4-byte Spill
.LBB13_63:                              # %if.end62.us.2
	movl	$1, %edi
	xorl	%esi, %esi
	movl	$0, blockSize100k
	movl	$1574, 516(%rsp)        # imm = 0x626
	callq	uncompressStream
	movl	dbglvl, %esi
	movl	$1578, 516(%rsp)        # imm = 0x62A
	cmpl	$3, %esi
	movb	%al, 115(%rsp)          # 1-byte Spill
	jle	.LBB13_65
# %bb.64:                               # %if.then66.us.2
	movabsq	$.L.str.30, %rdi
	movl	spec_fd+4, %esi
	movl	$1583, 516(%rsp)        # imm = 0x62F
	movb	$0, %al
	callq	printf
	movl	%eax, 108(%rsp)         # 4-byte Spill
.LBB13_65:                              # %for.body74.lr.ph.us.2
	xorl	%eax, %eax
	movl	%eax, %ecx
	xorl	%eax, %eax
	movq	spec_fd+16, %rdx
	movl	$1592, 516(%rsp)        # imm = 0x638
	movl	%eax, %esi
	movq	%rdx, 96(%rsp)          # 8-byte Spill
	movl	%esi, 92(%rsp)          # 4-byte Spill
	movq	%rcx, 80(%rsp)          # 8-byte Spill
	movl	%eax, 76(%rsp)          # 4-byte Spill
.LBB13_66:                              # %for.body74.us.2
                                        # =>This Inner Loop Header: Depth=1
	movl	76(%rsp), %eax          # 4-byte Reload
	movl	92(%rsp), %ecx          # 4-byte Reload
	movq	80(%rsp), %rdx          # 8-byte Reload
	movq	432(%rsp), %rsi         # 8-byte Reload
	movb	(%rsi,%rdx), %dil
	movl	$1595, 516(%rsp)        # imm = 0x63B
	movl	%ecx, %ecx
	movl	%ecx, %r8d
	movq	96(%rsp), %r9           # 8-byte Reload
	movb	(%r9,%r8), %r10b
	movl	$1601, 516(%rsp)        # imm = 0x641
	addq	$1, %rdx
	addl	$1, %eax
	cmpb	%r10b, %dil
	movq	%rdx, 64(%rsp)          # 8-byte Spill
	movl	%eax, 60(%rsp)          # 4-byte Spill
	jne	.LBB13_40
# %bb.67:                               # %for.cond69.us.2
                                        #   in Loop: Header=BB13_66 Depth=1
	movq	64(%rsp), %rax          # 8-byte Reload
	imulq	$1027, %rax, %rcx       # imm = 0x403
	movl	60(%rsp), %edx          # 4-byte Reload
	imull	$1027, %edx, %esi       # imm = 0x403
	movq	304(%rsp), %rdi         # 8-byte Reload
	cmpq	%rdi, %rcx
	movq	%rax, 80(%rsp)          # 8-byte Spill
	movl	%edx, 76(%rsp)          # 4-byte Spill
	movl	%esi, 92(%rsp)          # 4-byte Spill
	jl	.LBB13_66
# %bb.68:                               # %for.cond69.for.end89_crit_edge.us.2
	movl	dbglvl, %eax
	movl	$1608, 516(%rsp)        # imm = 0x648
	cmpl	$3, %eax
	jle	.LBB13_70
# %bb.69:                               # %if.then93.us.2
	movabsq	$.Lstr.40, %rdi
	callq	puts
	movl	%eax, 56(%rsp)          # 4-byte Spill
.LBB13_70:                              # %if.end95.us.2
	xorl	%esi, %esi
	movq	spec_fd+40, %rdi
	movl	$1610, 516(%rsp)        # imm = 0x64A
	movl	spec_fd+28, %eax
	movl	$1617, 516(%rsp)        # imm = 0x651
	movslq	%eax, %rdx
	callq	memset
	jmp	.LBB13_44
.LBB13_71:                              # %if.then46.1
	movl	$7, %esi
	movabsq	$.L.str.27, %rdi
	movb	$0, %al
	callq	printf
	movl	%eax, 52(%rsp)          # 4-byte Spill
.LBB13_72:                              # %if.end48.1
	xorl	%edi, %edi
	movl	$1, %esi
	movl	$7, blockSize100k
	movl	$1619, 516(%rsp)        # imm = 0x653
	callq	compressStream
	movl	dbglvl, %esi
	movl	$1623, 516(%rsp)        # imm = 0x657
	cmpl	$3, %esi
	jle	.LBB13_74
# %bb.73:                               # %if.then52.1
	movabsq	$.L.str.28, %rdi
	movl	spec_fd+28, %esi
	movl	$1628, 516(%rsp)        # imm = 0x65C
	movb	$0, %al
	callq	printf
	movl	%eax, 48(%rsp)          # 4-byte Spill
.LBB13_74:                              # %if.end54.1
	xorl	%esi, %esi
	movq	spec_fd+16, %rdi
	movl	$1630, 516(%rsp)        # imm = 0x65E
	movl	spec_fd+4, %eax
	movl	$1634, 516(%rsp)        # imm = 0x662
	movslq	%eax, %rdx
	callq	memset
	movl	$0, spec_fd+4
	movl	$1636, 516(%rsp)        # imm = 0x664
	movl	$0, spec_fd+8
	movl	$1638, 516(%rsp)        # imm = 0x666
	movl	$0, spec_fd+32
	movl	$1639, 516(%rsp)        # imm = 0x667
	movl	dbglvl, %eax
	movl	$1645, 516(%rsp)        # imm = 0x66D
	cmpl	$2, %eax
	jle	.LBB13_76
# %bb.75:                               # %if.then60.1
	movabsq	$.Lstr.41, %rdi
	callq	puts
	movl	%eax, 44(%rsp)          # 4-byte Spill
.LBB13_76:                              # %if.end62.1
	movl	$1, %edi
	xorl	%esi, %esi
	movl	$0, blockSize100k
	movl	$1647, 516(%rsp)        # imm = 0x66F
	callq	uncompressStream
	movl	dbglvl, %esi
	movl	$1651, 516(%rsp)        # imm = 0x673
	cmpl	$3, %esi
	movb	%al, 43(%rsp)           # 1-byte Spill
	jle	.LBB13_79
# %bb.77:                               # %for.end89.1
	movabsq	$.L.str.30, %rdi
	movl	spec_fd+4, %esi
	movl	$1654, 516(%rsp)        # imm = 0x676
	movb	$0, %al
	callq	printf
	movl	dbglvl, %esi
	movl	$1661, 516(%rsp)        # imm = 0x67D
	cmpl	$3, %esi
	movl	%eax, 36(%rsp)          # 4-byte Spill
	jle	.LBB13_79
# %bb.78:                               # %if.then93.1
	movabsq	$.Lstr.40, %rdi
	callq	puts
	movl	%eax, 32(%rsp)          # 4-byte Spill
.LBB13_79:                              # %if.end95.1
	xorl	%esi, %esi
	movq	spec_fd+40, %rdi
	movl	$1663, 516(%rsp)        # imm = 0x67F
	movl	spec_fd+28, %eax
	movl	$1667, 516(%rsp)        # imm = 0x683
	movslq	%eax, %rdx
	callq	memset
	movl	$0, spec_fd+28
	movl	$1669, 516(%rsp)        # imm = 0x685
	movl	$0, spec_fd+32
	movl	$1671, 516(%rsp)        # imm = 0x687
	movl	$0, spec_fd+8
	movl	$1672, 516(%rsp)        # imm = 0x688
	movl	dbglvl, %eax
	movl	$1678, 516(%rsp)        # imm = 0x68E
	cmpl	$2, %eax
	jle	.LBB13_81
# %bb.80:                               # %if.then46.2
	movl	$9, %esi
	movabsq	$.L.str.27, %rdi
	movb	$0, %al
	callq	printf
	movl	%eax, 28(%rsp)          # 4-byte Spill
.LBB13_81:                              # %if.end48.2
	xorl	%edi, %edi
	movl	$1, %esi
	movl	$9, blockSize100k
	movl	$1680, 516(%rsp)        # imm = 0x690
	callq	compressStream
	movl	dbglvl, %esi
	movl	$1684, 516(%rsp)        # imm = 0x694
	cmpl	$3, %esi
	jle	.LBB13_83
# %bb.82:                               # %if.then52.2
	movabsq	$.L.str.28, %rdi
	movl	spec_fd+28, %esi
	movl	$1689, 516(%rsp)        # imm = 0x699
	movb	$0, %al
	callq	printf
	movl	%eax, 24(%rsp)          # 4-byte Spill
.LBB13_83:                              # %if.end54.2
	xorl	%esi, %esi
	movq	spec_fd+16, %rdi
	movl	$1691, 516(%rsp)        # imm = 0x69B
	movl	spec_fd+4, %eax
	movl	$1695, 516(%rsp)        # imm = 0x69F
	movslq	%eax, %rdx
	callq	memset
	movl	$0, spec_fd+4
	movl	$1697, 516(%rsp)        # imm = 0x6A1
	movl	$0, spec_fd+8
	movl	$1699, 516(%rsp)        # imm = 0x6A3
	movl	$0, spec_fd+32
	movl	$1700, 516(%rsp)        # imm = 0x6A4
	movl	dbglvl, %eax
	movl	$1706, 516(%rsp)        # imm = 0x6AA
	cmpl	$2, %eax
	jle	.LBB13_85
# %bb.84:                               # %if.then60.2
	movabsq	$.Lstr.41, %rdi
	callq	puts
	movl	%eax, 20(%rsp)          # 4-byte Spill
.LBB13_85:                              # %if.end62.2
	movl	$1, %edi
	xorl	%esi, %esi
	movl	$0, blockSize100k
	movl	$1708, 516(%rsp)        # imm = 0x6AC
	callq	uncompressStream
	movl	dbglvl, %esi
	movl	$1712, 516(%rsp)        # imm = 0x6B0
	cmpl	$3, %esi
	movb	%al, 19(%rsp)           # 1-byte Spill
	jle	.LBB13_88
# %bb.86:                               # %for.end89.2
	movabsq	$.L.str.30, %rdi
	movl	spec_fd+4, %esi
	movl	$1715, 516(%rsp)        # imm = 0x6B3
	movb	$0, %al
	callq	printf
	movl	dbglvl, %esi
	movl	$1722, 516(%rsp)        # imm = 0x6BA
	cmpl	$3, %esi
	movl	%eax, 12(%rsp)          # 4-byte Spill
	jle	.LBB13_88
# %bb.87:                               # %if.then93.2
	movabsq	$.Lstr.40, %rdi
	callq	puts
	movl	%eax, 8(%rsp)           # 4-byte Spill
.LBB13_88:                              # %if.end95.2
	xorl	%esi, %esi
	movq	spec_fd+40, %rdi
	movl	$1724, 516(%rsp)        # imm = 0x6BC
	movl	spec_fd+28, %eax
	movl	$1739, 516(%rsp)        # imm = 0x6CB
	movslq	%eax, %rdx
	callq	memset
	jmp	.LBB13_44
.LBB13_89:                              # %UnifiedUnreachableBlock
.Lfunc_end13:
	.size	main, .Lfunc_end13-main
	.cfi_endproc
                                        # -- End function
	.globl	spec_compress           # -- Begin function spec_compress
	.p2align	4, 0x90
	.type	spec_compress,@function
spec_compress:                          # @spec_compress
	.cfi_startproc
# %bb.0:                                # %entry
	movl	$9999, -4(%rsp)         # imm = 0x270F
	movl	%edx, blockSize100k(%rip)
	movl	$1748, -4(%rsp)         # imm = 0x6D4
	jmp	compressStream          # TAILCALL
.Lfunc_end14:
	.size	spec_compress, .Lfunc_end14-spec_compress
	.cfi_endproc
                                        # -- End function
	.globl	spec_uncompress         # -- Begin function spec_uncompress
	.p2align	4, 0x90
	.type	spec_uncompress,@function
spec_uncompress:                        # @spec_uncompress
	.cfi_startproc
# %bb.0:                                # %entry
	movl	$9999, -4(%rsp)         # imm = 0x270F
	movl	$0, blockSize100k(%rip)
	movl	$1754, -4(%rsp)         # imm = 0x6DA
	movl	%edx, -8(%rsp)          # 4-byte Spill
	jmp	uncompressStream        # TAILCALL
.Lfunc_end15:
	.size	spec_uncompress, .Lfunc_end15-spec_uncompress
	.cfi_endproc
                                        # -- End function
	.globl	spec_initbufs           # -- Begin function spec_initbufs
	.p2align	4, 0x90
	.type	spec_initbufs,@function
spec_initbufs:                          # @spec_initbufs
	.cfi_startproc
# %bb.0:                                # %entry
	movl	$9999, -4(%rsp)         # imm = 0x270F
	movb	$0, smallMode
	movl	$1755, -4(%rsp)         # imm = 0x6DB
	movl	$0, verbosity
	movl	$1756, -4(%rsp)         # imm = 0x6DC
	movl	$9, blockSize100k
	movl	$1757, -4(%rsp)         # imm = 0x6DD
	movl	$30, workFactor
	movl	$1784, -4(%rsp)         # imm = 0x6F8
	retq
.Lfunc_end16:
	.size	spec_initbufs, .Lfunc_end16-spec_initbufs
	.cfi_endproc
                                        # -- End function
	.globl	debug_time              # -- Begin function debug_time
	.p2align	4, 0x90
	.type	debug_time,@function
debug_time:                             # @debug_time
	.cfi_startproc
# %bb.0:                                # %entry
	xorl	%eax, %eax
	movl	$9999, -4(%rsp)         # imm = 0x270F
	retq
.Lfunc_end17:
	.size	debug_time, .Lfunc_end17-debug_time
	.cfi_endproc
                                        # -- End function
	.section	.rodata.cst16,"aM",@progbits,16
	.p2align	4               # -- Begin function BZ2_blockSort
.LCPI18_0:
	.long	0                       # 0x0
	.long	1                       # 0x1
	.long	2                       # 0x2
	.long	3                       # 0x3
.LCPI18_1:
	.long	4                       # 0x4
	.long	5                       # 0x5
	.long	6                       # 0x6
	.long	7                       # 0x7
.LCPI18_2:
	.long	8                       # 0x8
	.long	9                       # 0x9
	.long	10                      # 0xa
	.long	11                      # 0xb
.LCPI18_3:
	.long	12                      # 0xc
	.long	13                      # 0xd
	.long	14                      # 0xe
	.long	15                      # 0xf
.LCPI18_4:
	.long	16                      # 0x10
	.long	17                      # 0x11
	.long	18                      # 0x12
	.long	19                      # 0x13
.LCPI18_5:
	.long	20                      # 0x14
	.long	21                      # 0x15
	.long	22                      # 0x16
	.long	23                      # 0x17
.LCPI18_6:
	.long	24                      # 0x18
	.long	25                      # 0x19
	.long	26                      # 0x1a
	.long	27                      # 0x1b
.LCPI18_7:
	.long	28                      # 0x1c
	.long	29                      # 0x1d
	.long	30                      # 0x1e
	.long	31                      # 0x1f
.LCPI18_8:
	.long	32                      # 0x20
	.long	33                      # 0x21
	.long	34                      # 0x22
	.long	35                      # 0x23
.LCPI18_9:
	.long	36                      # 0x24
	.long	37                      # 0x25
	.long	38                      # 0x26
	.long	39                      # 0x27
.LCPI18_10:
	.long	40                      # 0x28
	.long	41                      # 0x29
	.long	42                      # 0x2a
	.long	43                      # 0x2b
.LCPI18_11:
	.long	44                      # 0x2c
	.long	45                      # 0x2d
	.long	46                      # 0x2e
	.long	47                      # 0x2f
.LCPI18_12:
	.long	48                      # 0x30
	.long	49                      # 0x31
	.long	50                      # 0x32
	.long	51                      # 0x33
.LCPI18_13:
	.long	52                      # 0x34
	.long	53                      # 0x35
	.long	54                      # 0x36
	.long	55                      # 0x37
.LCPI18_14:
	.long	56                      # 0x38
	.long	57                      # 0x39
	.long	58                      # 0x3a
	.long	59                      # 0x3b
.LCPI18_15:
	.long	60                      # 0x3c
	.long	61                      # 0x3d
	.long	62                      # 0x3e
	.long	63                      # 0x3f
.LCPI18_16:
	.long	64                      # 0x40
	.long	65                      # 0x41
	.long	66                      # 0x42
	.long	67                      # 0x43
.LCPI18_17:
	.long	68                      # 0x44
	.long	69                      # 0x45
	.long	70                      # 0x46
	.long	71                      # 0x47
.LCPI18_18:
	.long	72                      # 0x48
	.long	73                      # 0x49
	.long	74                      # 0x4a
	.long	75                      # 0x4b
.LCPI18_19:
	.long	76                      # 0x4c
	.long	77                      # 0x4d
	.long	78                      # 0x4e
	.long	79                      # 0x4f
.LCPI18_20:
	.long	80                      # 0x50
	.long	81                      # 0x51
	.long	82                      # 0x52
	.long	83                      # 0x53
.LCPI18_21:
	.long	84                      # 0x54
	.long	85                      # 0x55
	.long	86                      # 0x56
	.long	87                      # 0x57
.LCPI18_22:
	.long	88                      # 0x58
	.long	89                      # 0x59
	.long	90                      # 0x5a
	.long	91                      # 0x5b
.LCPI18_23:
	.long	92                      # 0x5c
	.long	93                      # 0x5d
	.long	94                      # 0x5e
	.long	95                      # 0x5f
.LCPI18_24:
	.long	96                      # 0x60
	.long	97                      # 0x61
	.long	98                      # 0x62
	.long	99                      # 0x63
.LCPI18_25:
	.long	100                     # 0x64
	.long	101                     # 0x65
	.long	102                     # 0x66
	.long	103                     # 0x67
.LCPI18_26:
	.long	104                     # 0x68
	.long	105                     # 0x69
	.long	106                     # 0x6a
	.long	107                     # 0x6b
.LCPI18_27:
	.long	108                     # 0x6c
	.long	109                     # 0x6d
	.long	110                     # 0x6e
	.long	111                     # 0x6f
.LCPI18_28:
	.long	112                     # 0x70
	.long	113                     # 0x71
	.long	114                     # 0x72
	.long	115                     # 0x73
.LCPI18_29:
	.long	116                     # 0x74
	.long	117                     # 0x75
	.long	118                     # 0x76
	.long	119                     # 0x77
.LCPI18_30:
	.long	120                     # 0x78
	.long	121                     # 0x79
	.long	122                     # 0x7a
	.long	123                     # 0x7b
.LCPI18_31:
	.long	124                     # 0x7c
	.long	125                     # 0x7d
	.long	126                     # 0x7e
	.long	127                     # 0x7f
.LCPI18_32:
	.long	128                     # 0x80
	.long	129                     # 0x81
	.long	130                     # 0x82
	.long	131                     # 0x83
.LCPI18_33:
	.long	132                     # 0x84
	.long	133                     # 0x85
	.long	134                     # 0x86
	.long	135                     # 0x87
.LCPI18_34:
	.long	136                     # 0x88
	.long	137                     # 0x89
	.long	138                     # 0x8a
	.long	139                     # 0x8b
.LCPI18_35:
	.long	140                     # 0x8c
	.long	141                     # 0x8d
	.long	142                     # 0x8e
	.long	143                     # 0x8f
.LCPI18_36:
	.long	144                     # 0x90
	.long	145                     # 0x91
	.long	146                     # 0x92
	.long	147                     # 0x93
.LCPI18_37:
	.long	148                     # 0x94
	.long	149                     # 0x95
	.long	150                     # 0x96
	.long	151                     # 0x97
.LCPI18_38:
	.long	152                     # 0x98
	.long	153                     # 0x99
	.long	154                     # 0x9a
	.long	155                     # 0x9b
.LCPI18_39:
	.long	156                     # 0x9c
	.long	157                     # 0x9d
	.long	158                     # 0x9e
	.long	159                     # 0x9f
.LCPI18_40:
	.long	160                     # 0xa0
	.long	161                     # 0xa1
	.long	162                     # 0xa2
	.long	163                     # 0xa3
.LCPI18_41:
	.long	164                     # 0xa4
	.long	165                     # 0xa5
	.long	166                     # 0xa6
	.long	167                     # 0xa7
.LCPI18_42:
	.long	168                     # 0xa8
	.long	169                     # 0xa9
	.long	170                     # 0xaa
	.long	171                     # 0xab
.LCPI18_43:
	.long	172                     # 0xac
	.long	173                     # 0xad
	.long	174                     # 0xae
	.long	175                     # 0xaf
.LCPI18_44:
	.long	176                     # 0xb0
	.long	177                     # 0xb1
	.long	178                     # 0xb2
	.long	179                     # 0xb3
.LCPI18_45:
	.long	180                     # 0xb4
	.long	181                     # 0xb5
	.long	182                     # 0xb6
	.long	183                     # 0xb7
.LCPI18_46:
	.long	184                     # 0xb8
	.long	185                     # 0xb9
	.long	186                     # 0xba
	.long	187                     # 0xbb
.LCPI18_47:
	.long	188                     # 0xbc
	.long	189                     # 0xbd
	.long	190                     # 0xbe
	.long	191                     # 0xbf
.LCPI18_48:
	.long	192                     # 0xc0
	.long	193                     # 0xc1
	.long	194                     # 0xc2
	.long	195                     # 0xc3
.LCPI18_49:
	.long	196                     # 0xc4
	.long	197                     # 0xc5
	.long	198                     # 0xc6
	.long	199                     # 0xc7
.LCPI18_50:
	.long	200                     # 0xc8
	.long	201                     # 0xc9
	.long	202                     # 0xca
	.long	203                     # 0xcb
.LCPI18_51:
	.long	204                     # 0xcc
	.long	205                     # 0xcd
	.long	206                     # 0xce
	.long	207                     # 0xcf
.LCPI18_52:
	.long	208                     # 0xd0
	.long	209                     # 0xd1
	.long	210                     # 0xd2
	.long	211                     # 0xd3
.LCPI18_53:
	.long	212                     # 0xd4
	.long	213                     # 0xd5
	.long	214                     # 0xd6
	.long	215                     # 0xd7
.LCPI18_54:
	.long	216                     # 0xd8
	.long	217                     # 0xd9
	.long	218                     # 0xda
	.long	219                     # 0xdb
.LCPI18_55:
	.long	220                     # 0xdc
	.long	221                     # 0xdd
	.long	222                     # 0xde
	.long	223                     # 0xdf
.LCPI18_56:
	.long	224                     # 0xe0
	.long	225                     # 0xe1
	.long	226                     # 0xe2
	.long	227                     # 0xe3
.LCPI18_57:
	.long	228                     # 0xe4
	.long	229                     # 0xe5
	.long	230                     # 0xe6
	.long	231                     # 0xe7
.LCPI18_58:
	.long	232                     # 0xe8
	.long	233                     # 0xe9
	.long	234                     # 0xea
	.long	235                     # 0xeb
.LCPI18_59:
	.long	236                     # 0xec
	.long	237                     # 0xed
	.long	238                     # 0xee
	.long	239                     # 0xef
.LCPI18_60:
	.long	240                     # 0xf0
	.long	241                     # 0xf1
	.long	242                     # 0xf2
	.long	243                     # 0xf3
.LCPI18_61:
	.long	244                     # 0xf4
	.long	245                     # 0xf5
	.long	246                     # 0xf6
	.long	247                     # 0xf7
.LCPI18_62:
	.long	248                     # 0xf8
	.long	249                     # 0xf9
	.long	250                     # 0xfa
	.long	251                     # 0xfb
.LCPI18_63:
	.long	252                     # 0xfc
	.long	253                     # 0xfd
	.long	254                     # 0xfe
	.long	255                     # 0xff
	.section	.rodata.cst4,"aM",@progbits,4
	.p2align	2
.LCPI18_64:
	.long	1065353216              # float 1
	.text
	.globl	BZ2_blockSort
	.p2align	4, 0x90
	.type	BZ2_blockSort,@function
BZ2_blockSort:                          # @BZ2_blockSort
	.cfi_startproc
# %bb.0:                                # %entry
	pushq	%rbp
	.cfi_def_cfa_offset 16
	pushq	%r15
	.cfi_def_cfa_offset 24
	pushq	%r14
	.cfi_def_cfa_offset 32
	pushq	%r13
	.cfi_def_cfa_offset 40
	pushq	%r12
	.cfi_def_cfa_offset 48
	pushq	%rbx
	.cfi_def_cfa_offset 56
	subq	$6616, %rsp             # imm = 0x19D8
	.cfi_def_cfa_offset 6672
	.cfi_offset %rbx, -56
	.cfi_offset %r12, -48
	.cfi_offset %r13, -40
	.cfi_offset %r14, -32
	.cfi_offset %r15, -24
	.cfi_offset %rbp, -16
	leaq	2076(%rsp), %rax
	movl	$9999, 6612(%rsp)       # imm = 0x270F
	movq	56(%rdi), %rcx
	movl	$1786, 6612(%rsp)       # imm = 0x6FA
	movq	64(%rdi), %rdx
	movl	$1788, 6612(%rsp)       # imm = 0x6FC
	movq	40(%rdi), %rsi
	movl	$1790, 6612(%rsp)       # imm = 0x6FE
	movq	%rdi, %r8
	addq	$108, %r8
	movl	108(%rdi), %r9d
	movl	$1792, 6612(%rsp)       # imm = 0x700
	movl	656(%rdi), %r10d
	movl	$1794, 6612(%rsp)       # imm = 0x702
	movl	88(%rdi), %r11d
	movl	$1801, 6612(%rsp)       # imm = 0x709
	cmpl	$10000, %r9d            # imm = 0x2710
	movq	%rdi, 2064(%rsp)        # 8-byte Spill
	movl	%r11d, 2060(%rsp)       # 4-byte Spill
	movq	%rcx, 2048(%rsp)        # 8-byte Spill
	movq	%rdx, 2040(%rsp)        # 8-byte Spill
	movq	%rsi, 2032(%rsp)        # 8-byte Spill
	movq	%r8, 2024(%rsp)         # 8-byte Spill
	movl	%r9d, 2020(%rsp)        # 4-byte Spill
	movl	%r10d, 2016(%rsp)       # 4-byte Spill
	movq	%rax, 2008(%rsp)        # 8-byte Spill
	jge	.LBB18_2
# %bb.1:                                # %if.then
	movq	2064(%rsp), %rax        # 8-byte Reload
	movq	24(%rax), %rdi
	movl	$1803, 6612(%rsp)       # imm = 0x70B
	movq	32(%rax), %rsi
	movl	$1824, 6612(%rsp)       # imm = 0x720
	movq	2032(%rsp), %rdx        # 8-byte Reload
	movl	2020(%rsp), %ecx        # 4-byte Reload
	movl	2016(%rsp), %r8d        # 4-byte Reload
	callq	fallbackSort
	jmp	.LBB18_145
.LBB18_2:                               # %if.else
	leaq	2080(%rsp), %rax
	leaq	3104(%rsp), %rcx
	leaq	4384(%rsp), %rdx
	leaq	4128(%rsp), %rsi
	movl	$3, %edi
	movl	$100, %r8d
	movl	$1, %r9d
	movl	2020(%rsp), %r10d       # 4-byte Reload
	addl	$34, %r10d
	movl	%r10d, %r11d
	andl	$1, %r11d
	movl	2020(%rsp), %ebx        # 4-byte Reload
	addl	$35, %ebx
	cmpl	$0, %r11d
	cmovel	%r10d, %ebx
	movslq	%ebx, %r14
	movq	2040(%rsp), %r15        # 8-byte Reload
	addq	%r14, %r15
	movl	2060(%rsp), %r10d       # 4-byte Reload
	cmpl	$1, %r10d
	cmovgl	%r10d, %r9d
	cmpl	$100, %r9d
	cmovll	%r9d, %r8d
	addl	$-1, %r8d
	movq	%rax, 2000(%rsp)        # 8-byte Spill
	movl	%r8d, %eax
	movq	%rdx, 1992(%rsp)        # 8-byte Spill
	cltd
	idivl	%edi
	movl	2020(%rsp), %edi        # 4-byte Reload
	imull	%edi, %eax
	movl	%eax, 2076(%rsp)
	movl	$1837, 6612(%rsp)       # imm = 0x72D
	movq	2032(%rsp), %r14        # 8-byte Reload
	movq	1992(%rsp), %r12        # 8-byte Reload
	movq	2000(%rsp), %r13        # 8-byte Reload
	movl	2016(%rsp), %r8d        # 4-byte Reload
	cmpl	$3, %r8d
	setg	%bpl
	testb	$1, %bpl
	movq	%r12, 1984(%rsp)        # 8-byte Spill
	movq	%r15, 1976(%rsp)        # 8-byte Spill
	movq	%rsi, 1968(%rsp)        # 8-byte Spill
	movl	%eax, 1964(%rsp)        # 4-byte Spill
	movq	%r14, 1952(%rsp)        # 8-byte Spill
	movq	%rcx, 1944(%rsp)        # 8-byte Spill
	movq	%r13, 1936(%rsp)        # 8-byte Spill
	movb	%bpl, 1935(%rsp)        # 1-byte Spill
	jne	.LBB18_3
	jmp	.LBB18_4
.LBB18_3:                               # %if.then.i
	movl	$33, %eax
	movl	%eax, %esi
	movl	$1, %eax
	movl	%eax, %edx
	movabsq	$.L.str.6.1, %rdi
	movq	stderr, %rcx
	movl	$1845, 6612(%rsp)       # imm = 0x735
	callq	fwrite
	movq	%rax, 1920(%rsp)        # 8-byte Spill
.LBB18_4:                               # %for.body6.lr.ph.i
	movl	$4294967289, %eax       # imm = 0xFFFFFFF9
	xorl	%ecx, %ecx
	movl	$262148, %edx           # imm = 0x40004
                                        # kill: def %rdx killed %edx
	movq	1952(%rsp), %rdi        # 8-byte Reload
	movl	%ecx, %esi
	movl	%eax, 1916(%rsp)        # 4-byte Spill
	movl	%ecx, 1912(%rsp)        # 4-byte Spill
	callq	memset
	movq	2040(%rsp), %rdx        # 8-byte Reload
	movb	(%rdx), %r8b
	movl	$1862, 6612(%rsp)       # imm = 0x746
	movzbl	%r8b, %eax
	shll	$8, %eax
	movl	2020(%rsp), %ecx        # 4-byte Reload
	addl	$-1, %ecx
	movslq	%ecx, %rdi
	movl	1912(%rsp), %esi        # 4-byte Reload
	movl	2020(%rsp), %r9d        # 4-byte Reload
	subl	%r9d, %esi
	cmpl	$-7, %esi
	movl	1916(%rsp), %r10d       # 4-byte Reload
	cmovgl	%esi, %r10d
	addl	$3, %r9d
	addl	%r10d, %r9d
	movq	%rdi, %r11
	movq	%r11, 1904(%rsp)        # 8-byte Spill
	movl	%ecx, 1900(%rsp)        # 4-byte Spill
	movq	%rdi, 1888(%rsp)        # 8-byte Spill
	movl	%r9d, 1884(%rsp)        # 4-byte Spill
	movl	%eax, 1880(%rsp)        # 4-byte Spill
.LBB18_5:                               # %for.body6.i
                                        # =>This Inner Loop Header: Depth=1
	movl	1880(%rsp), %eax        # 4-byte Reload
	movq	1904(%rsp), %rcx        # 8-byte Reload
	movq	1976(%rsp), %rdx        # 8-byte Reload
	movw	$0, (%rdx,%rcx,2)
	movl	$1866, 6612(%rsp)       # imm = 0x74A
	sarl	$8, %eax
	movq	2040(%rsp), %rsi        # 8-byte Reload
	movb	(%rsi,%rcx), %dil
	movl	$1872, 6612(%rsp)       # imm = 0x750
	movzbl	%dil, %r8d
	shll	$8, %r8d
	orl	%eax, %r8d
	movslq	%r8d, %r9
	movq	2032(%rsp), %r10        # 8-byte Reload
	movl	(%r10,%r9,4), %eax
	movl	$1874, 6612(%rsp)       # imm = 0x752
	addl	$1, %eax
	movl	%eax, (%r10,%r9,4)
	movl	$1877, 6612(%rsp)       # imm = 0x755
	movw	$0, -2(%rdx,%rcx,2)
	movl	$1880, 6612(%rsp)       # imm = 0x758
	sarl	$8, %r8d
	movb	-1(%rsi,%rcx), %dil
	movl	$1886, 6612(%rsp)       # imm = 0x75E
	movzbl	%dil, %eax
	shll	$8, %eax
	orl	%r8d, %eax
	movslq	%eax, %r9
	movl	(%r10,%r9,4), %r8d
	movl	$1888, 6612(%rsp)       # imm = 0x760
	addl	$1, %r8d
	movl	%r8d, (%r10,%r9,4)
	movl	$1891, 6612(%rsp)       # imm = 0x763
	movw	$0, -4(%rdx,%rcx,2)
	movl	$1894, 6612(%rsp)       # imm = 0x766
	sarl	$8, %eax
	movb	-2(%rsi,%rcx), %dil
	movl	$1900, 6612(%rsp)       # imm = 0x76C
	movzbl	%dil, %r8d
	shll	$8, %r8d
	orl	%eax, %r8d
	movslq	%r8d, %r9
	movl	(%r10,%r9,4), %eax
	movl	$1902, 6612(%rsp)       # imm = 0x76E
	addl	$1, %eax
	movl	%eax, (%r10,%r9,4)
	movl	$1905, 6612(%rsp)       # imm = 0x771
	movw	$0, -6(%rdx,%rcx,2)
	movl	$1908, 6612(%rsp)       # imm = 0x774
	sarl	$8, %r8d
	movb	-3(%rsi,%rcx), %dil
	movl	$1913, 6612(%rsp)       # imm = 0x779
	movzbl	%dil, %eax
	shll	$8, %eax
	orl	%r8d, %eax
	movslq	%eax, %r9
	movl	(%r10,%r9,4), %r8d
	movl	$1915, 6612(%rsp)       # imm = 0x77B
	addl	$1, %r8d
	movl	%r8d, (%r10,%r9,4)
	movl	$1930, 6612(%rsp)       # imm = 0x78A
	movq	%rcx, %r9
	addq	$-4, %r9
	cmpq	$6, %rcx
	movl	%eax, %r8d
	movl	%eax, 1876(%rsp)        # 4-byte Spill
	movq	%r9, 1904(%rsp)         # 8-byte Spill
	movl	%r8d, 1880(%rsp)        # 4-byte Spill
	jg	.LBB18_5
# %bb.6:                                # %for.end60.i
	movl	1884(%rsp), %eax        # 4-byte Reload
	andl	$-4, %eax
	movl	2020(%rsp), %ecx        # 4-byte Reload
	addl	$-5, %ecx
	subl	%eax, %ecx
	cmpl	$-1, %ecx
	setg	%dl
	testb	$1, %dl
	movl	%ecx, 1872(%rsp)        # 4-byte Spill
	movb	%dl, 1871(%rsp)         # 1-byte Spill
	jne	.LBB18_7
	jmp	.LBB18_9
.LBB18_7:                               # %for.body64.lr.ph.i
	movl	1872(%rsp), %eax        # 4-byte Reload
	movslq	%eax, %rcx
	movl	1876(%rsp), %edx        # 4-byte Reload
	movq	%rcx, 1856(%rsp)        # 8-byte Spill
	movl	%edx, 1852(%rsp)        # 4-byte Spill
.LBB18_8:                               # %for.body64.i
                                        # =>This Inner Loop Header: Depth=1
	movl	1852(%rsp), %eax        # 4-byte Reload
	movq	1856(%rsp), %rcx        # 8-byte Reload
	movq	1976(%rsp), %rdx        # 8-byte Reload
	movw	$0, (%rdx,%rcx,2)
	movl	$1933, 6612(%rsp)       # imm = 0x78D
	sarl	$8, %eax
	movq	2040(%rsp), %rsi        # 8-byte Reload
	movb	(%rsi,%rcx), %dil
	movl	$1938, 6612(%rsp)       # imm = 0x792
	movzbl	%dil, %r8d
	shll	$8, %r8d
	orl	%eax, %r8d
	movslq	%r8d, %r9
	movq	2032(%rsp), %r10        # 8-byte Reload
	movl	(%r10,%r9,4), %eax
	movl	$1940, 6612(%rsp)       # imm = 0x794
	addl	$1, %eax
	movl	%eax, (%r10,%r9,4)
	movl	$1944, 6612(%rsp)       # imm = 0x798
	movq	%rcx, %r9
	addq	$-1, %r9
	cmpq	$0, %rcx
	movq	%r9, 1856(%rsp)         # 8-byte Spill
	movl	%r8d, 1852(%rsp)        # 4-byte Spill
	jg	.LBB18_8
.LBB18_9:                               # %for.end79.i
	movl	2020(%rsp), %eax        # 4-byte Reload
	movslq	%eax, %rcx
	movq	2040(%rsp), %rdx        # 8-byte Reload
	movb	(%rdx), %sil
	movl	$1946, 6612(%rsp)       # imm = 0x79A
	movb	%sil, (%rdx,%rcx)
	movl	$1948, 6612(%rsp)       # imm = 0x79C
	movq	1976(%rsp), %rdi        # 8-byte Reload
	movw	$0, (%rdi,%rcx,2)
	movl	$1950, 6612(%rsp)       # imm = 0x79E
	movb	1(%rdx), %sil
	movl	$1953, 6612(%rsp)       # imm = 0x7A1
	movb	%sil, 1(%rdx,%rcx)
	movl	$1955, 6612(%rsp)       # imm = 0x7A3
	movw	$0, 2(%rdi,%rcx,2)
	movl	$1957, 6612(%rsp)       # imm = 0x7A5
	movb	2(%rdx), %sil
	movl	$1960, 6612(%rsp)       # imm = 0x7A8
	movb	%sil, 2(%rdx,%rcx)
	movl	$1962, 6612(%rsp)       # imm = 0x7AA
	movw	$0, 4(%rdi,%rcx,2)
	movl	$1964, 6612(%rsp)       # imm = 0x7AC
	movb	3(%rdx), %sil
	movl	$1967, 6612(%rsp)       # imm = 0x7AF
	movb	%sil, 3(%rdx,%rcx)
	movl	$1969, 6612(%rsp)       # imm = 0x7B1
	movw	$0, 6(%rdi,%rcx,2)
	movl	$1971, 6612(%rsp)       # imm = 0x7B3
	movb	4(%rdx), %sil
	movl	$1974, 6612(%rsp)       # imm = 0x7B6
	movb	%sil, 4(%rdx,%rcx)
	movl	$1976, 6612(%rsp)       # imm = 0x7B8
	movw	$0, 8(%rdi,%rcx,2)
	movl	$1978, 6612(%rsp)       # imm = 0x7BA
	movb	5(%rdx), %sil
	movl	$1981, 6612(%rsp)       # imm = 0x7BD
	movb	%sil, 5(%rdx,%rcx)
	movl	$1983, 6612(%rsp)       # imm = 0x7BF
	movw	$0, 10(%rdi,%rcx,2)
	movl	$1985, 6612(%rsp)       # imm = 0x7C1
	movb	6(%rdx), %sil
	movl	$1988, 6612(%rsp)       # imm = 0x7C4
	movb	%sil, 6(%rdx,%rcx)
	movl	$1990, 6612(%rsp)       # imm = 0x7C6
	movw	$0, 12(%rdi,%rcx,2)
	movl	$1992, 6612(%rsp)       # imm = 0x7C8
	movb	7(%rdx), %sil
	movl	$1995, 6612(%rsp)       # imm = 0x7CB
	movb	%sil, 7(%rdx,%rcx)
	movl	$1997, 6612(%rsp)       # imm = 0x7CD
	movw	$0, 14(%rdi,%rcx,2)
	movl	$1999, 6612(%rsp)       # imm = 0x7CF
	movb	8(%rdx), %sil
	movl	$2002, 6612(%rsp)       # imm = 0x7D2
	movb	%sil, 8(%rdx,%rcx)
	movl	$2004, 6612(%rsp)       # imm = 0x7D4
	movw	$0, 16(%rdi,%rcx,2)
	movl	$2006, 6612(%rsp)       # imm = 0x7D6
	movb	9(%rdx), %sil
	movl	$2009, 6612(%rsp)       # imm = 0x7D9
	movb	%sil, 9(%rdx,%rcx)
	movl	$2011, 6612(%rsp)       # imm = 0x7DB
	movw	$0, 18(%rdi,%rcx,2)
	movl	$2013, 6612(%rsp)       # imm = 0x7DD
	movb	10(%rdx), %sil
	movl	$2016, 6612(%rsp)       # imm = 0x7E0
	movb	%sil, 10(%rdx,%rcx)
	movl	$2018, 6612(%rsp)       # imm = 0x7E2
	movw	$0, 20(%rdi,%rcx,2)
	movl	$2020, 6612(%rsp)       # imm = 0x7E4
	movb	11(%rdx), %sil
	movl	$2023, 6612(%rsp)       # imm = 0x7E7
	movb	%sil, 11(%rdx,%rcx)
	movl	$2025, 6612(%rsp)       # imm = 0x7E9
	movw	$0, 22(%rdi,%rcx,2)
	movl	$2027, 6612(%rsp)       # imm = 0x7EB
	movb	12(%rdx), %sil
	movl	$2030, 6612(%rsp)       # imm = 0x7EE
	movb	%sil, 12(%rdx,%rcx)
	movl	$2032, 6612(%rsp)       # imm = 0x7F0
	movw	$0, 24(%rdi,%rcx,2)
	movl	$2034, 6612(%rsp)       # imm = 0x7F2
	movb	13(%rdx), %sil
	movl	$2037, 6612(%rsp)       # imm = 0x7F5
	movb	%sil, 13(%rdx,%rcx)
	movl	$2039, 6612(%rsp)       # imm = 0x7F7
	movw	$0, 26(%rdi,%rcx,2)
	movl	$2041, 6612(%rsp)       # imm = 0x7F9
	movb	14(%rdx), %sil
	movl	$2044, 6612(%rsp)       # imm = 0x7FC
	movb	%sil, 14(%rdx,%rcx)
	movl	$2046, 6612(%rsp)       # imm = 0x7FE
	movw	$0, 28(%rdi,%rcx,2)
	movl	$2048, 6612(%rsp)       # imm = 0x800
	movb	15(%rdx), %sil
	movl	$2051, 6612(%rsp)       # imm = 0x803
	movb	%sil, 15(%rdx,%rcx)
	movl	$2053, 6612(%rsp)       # imm = 0x805
	movw	$0, 30(%rdi,%rcx,2)
	movl	$2055, 6612(%rsp)       # imm = 0x807
	movb	16(%rdx), %sil
	movl	$2058, 6612(%rsp)       # imm = 0x80A
	movb	%sil, 16(%rdx,%rcx)
	movl	$2060, 6612(%rsp)       # imm = 0x80C
	movw	$0, 32(%rdi,%rcx,2)
	movl	$2062, 6612(%rsp)       # imm = 0x80E
	movb	17(%rdx), %sil
	movl	$2065, 6612(%rsp)       # imm = 0x811
	movb	%sil, 17(%rdx,%rcx)
	movl	$2067, 6612(%rsp)       # imm = 0x813
	movw	$0, 34(%rdi,%rcx,2)
	movl	$2069, 6612(%rsp)       # imm = 0x815
	movb	18(%rdx), %sil
	movl	$2072, 6612(%rsp)       # imm = 0x818
	movb	%sil, 18(%rdx,%rcx)
	movl	$2074, 6612(%rsp)       # imm = 0x81A
	movw	$0, 36(%rdi,%rcx,2)
	movl	$2076, 6612(%rsp)       # imm = 0x81C
	movb	19(%rdx), %sil
	movl	$2079, 6612(%rsp)       # imm = 0x81F
	movb	%sil, 19(%rdx,%rcx)
	movl	$2081, 6612(%rsp)       # imm = 0x821
	movw	$0, 38(%rdi,%rcx,2)
	movl	$2083, 6612(%rsp)       # imm = 0x823
	movb	20(%rdx), %sil
	movl	$2086, 6612(%rsp)       # imm = 0x826
	movb	%sil, 20(%rdx,%rcx)
	movl	$2088, 6612(%rsp)       # imm = 0x828
	movw	$0, 40(%rdi,%rcx,2)
	movl	$2090, 6612(%rsp)       # imm = 0x82A
	movb	21(%rdx), %sil
	movl	$2093, 6612(%rsp)       # imm = 0x82D
	movb	%sil, 21(%rdx,%rcx)
	movl	$2095, 6612(%rsp)       # imm = 0x82F
	movw	$0, 42(%rdi,%rcx,2)
	movl	$2097, 6612(%rsp)       # imm = 0x831
	movb	22(%rdx), %sil
	movl	$2100, 6612(%rsp)       # imm = 0x834
	movb	%sil, 22(%rdx,%rcx)
	movl	$2102, 6612(%rsp)       # imm = 0x836
	movw	$0, 44(%rdi,%rcx,2)
	movl	$2104, 6612(%rsp)       # imm = 0x838
	movb	23(%rdx), %sil
	movl	$2107, 6612(%rsp)       # imm = 0x83B
	movb	%sil, 23(%rdx,%rcx)
	movl	$2109, 6612(%rsp)       # imm = 0x83D
	movw	$0, 46(%rdi,%rcx,2)
	movl	$2111, 6612(%rsp)       # imm = 0x83F
	movb	24(%rdx), %sil
	movl	$2114, 6612(%rsp)       # imm = 0x842
	movb	%sil, 24(%rdx,%rcx)
	movl	$2116, 6612(%rsp)       # imm = 0x844
	movw	$0, 48(%rdi,%rcx,2)
	movl	$2118, 6612(%rsp)       # imm = 0x846
	movb	25(%rdx), %sil
	movl	$2121, 6612(%rsp)       # imm = 0x849
	movb	%sil, 25(%rdx,%rcx)
	movl	$2123, 6612(%rsp)       # imm = 0x84B
	movw	$0, 50(%rdi,%rcx,2)
	movl	$2125, 6612(%rsp)       # imm = 0x84D
	movb	26(%rdx), %sil
	movl	$2128, 6612(%rsp)       # imm = 0x850
	movb	%sil, 26(%rdx,%rcx)
	movl	$2130, 6612(%rsp)       # imm = 0x852
	movw	$0, 52(%rdi,%rcx,2)
	movl	$2132, 6612(%rsp)       # imm = 0x854
	movb	27(%rdx), %sil
	movl	$2135, 6612(%rsp)       # imm = 0x857
	movb	%sil, 27(%rdx,%rcx)
	movl	$2137, 6612(%rsp)       # imm = 0x859
	movw	$0, 54(%rdi,%rcx,2)
	movl	$2139, 6612(%rsp)       # imm = 0x85B
	movb	28(%rdx), %sil
	movl	$2142, 6612(%rsp)       # imm = 0x85E
	movb	%sil, 28(%rdx,%rcx)
	movl	$2144, 6612(%rsp)       # imm = 0x860
	movw	$0, 56(%rdi,%rcx,2)
	movl	$2146, 6612(%rsp)       # imm = 0x862
	movb	29(%rdx), %sil
	movl	$2149, 6612(%rsp)       # imm = 0x865
	movb	%sil, 29(%rdx,%rcx)
	movl	$2151, 6612(%rsp)       # imm = 0x867
	movw	$0, 58(%rdi,%rcx,2)
	movl	$2153, 6612(%rsp)       # imm = 0x869
	movb	30(%rdx), %sil
	movl	$2156, 6612(%rsp)       # imm = 0x86C
	movb	%sil, 30(%rdx,%rcx)
	movl	$2158, 6612(%rsp)       # imm = 0x86E
	movw	$0, 60(%rdi,%rcx,2)
	movl	$2160, 6612(%rsp)       # imm = 0x870
	movb	31(%rdx), %sil
	movl	$2163, 6612(%rsp)       # imm = 0x873
	movb	%sil, 31(%rdx,%rcx)
	movl	$2165, 6612(%rsp)       # imm = 0x875
	movw	$0, 62(%rdi,%rcx,2)
	movl	$2167, 6612(%rsp)       # imm = 0x877
	movb	32(%rdx), %sil
	movl	$2170, 6612(%rsp)       # imm = 0x87A
	movb	%sil, 32(%rdx,%rcx)
	movl	$2172, 6612(%rsp)       # imm = 0x87C
	movw	$0, 64(%rdi,%rcx,2)
	movl	$2174, 6612(%rsp)       # imm = 0x87E
	movb	33(%rdx), %sil
	movl	$2177, 6612(%rsp)       # imm = 0x881
	movb	%sil, 33(%rdx,%rcx)
	movl	$2179, 6612(%rsp)       # imm = 0x883
	movw	$0, 66(%rdi,%rcx,2)
	movl	$2181, 6612(%rsp)       # imm = 0x885
	movb	1935(%rsp), %sil        # 1-byte Reload
	testb	$1, %sil
	jne	.LBB18_10
	jmp	.LBB18_11
.LBB18_10:                              # %if.then96.i
	movl	$27, %eax
	movl	%eax, %esi
	movl	$1, %eax
	movl	%eax, %edx
	movabsq	$.L.str.2, %rdi
	movq	stderr, %rcx
	movl	$2186, 6612(%rsp)       # imm = 0x88A
	callq	fwrite
	movq	%rax, 1840(%rsp)        # 8-byte Spill
.LBB18_11:                              # %if.end98.i
	movl	$1, %eax
	movl	%eax, %ecx
	movq	2032(%rsp), %rdx        # 8-byte Reload
	movl	(%rdx), %eax
	movl	$2193, 6612(%rsp)       # imm = 0x891
	movl	%eax, 1836(%rsp)        # 4-byte Spill
	movq	%rcx, 1824(%rsp)        # 8-byte Spill
.LBB18_12:                              # %for.body102.i
                                        # =>This Inner Loop Header: Depth=1
	movq	1824(%rsp), %rax        # 8-byte Reload
	movl	1836(%rsp), %ecx        # 4-byte Reload
	movq	2032(%rsp), %rdx        # 8-byte Reload
	movl	(%rdx,%rax,4), %esi
	movl	$2195, 6612(%rsp)       # imm = 0x893
	addl	%ecx, %esi
	movl	%esi, (%rdx,%rax,4)
	movl	$2198, 6612(%rsp)       # imm = 0x896
	movl	4(%rdx,%rax,4), %ecx
	movl	$2200, 6612(%rsp)       # imm = 0x898
	addl	%esi, %ecx
	movl	%ecx, 4(%rdx,%rax,4)
	movl	$2203, 6612(%rsp)       # imm = 0x89B
	movl	8(%rdx,%rax,4), %esi
	movl	$2205, 6612(%rsp)       # imm = 0x89D
	addl	%ecx, %esi
	movl	%esi, 8(%rdx,%rax,4)
	movl	$2208, 6612(%rsp)       # imm = 0x8A0
	movl	12(%rdx,%rax,4), %ecx
	movl	$2209, 6612(%rsp)       # imm = 0x8A1
	addl	%esi, %ecx
	movl	%ecx, 12(%rdx,%rax,4)
	movl	$2212, 6612(%rsp)       # imm = 0x8A4
	addq	$4, %rax
	cmpq	$65537, %rax            # imm = 0x10001
	movl	%ecx, 1836(%rsp)        # 4-byte Spill
	movq	%rax, 1824(%rsp)        # 8-byte Spill
	jne	.LBB18_12
# %bb.13:                               # %for.body120.lr.ph.i
	movq	2040(%rsp), %rax        # 8-byte Reload
	movb	(%rax), %cl
	movl	$2222, 6612(%rsp)       # imm = 0x8AE
	movzbl	%cl, %edx
	movw	%dx, %si
	shlw	$8, %si
	movq	1888(%rsp), %rdi        # 8-byte Reload
	movq	%rdi, 1816(%rsp)        # 8-byte Spill
	movw	%si, 1814(%rsp)         # 2-byte Spill
.LBB18_14:                              # %for.body120.i
                                        # =>This Inner Loop Header: Depth=1
	movw	1814(%rsp), %ax         # 2-byte Reload
	movq	1816(%rsp), %rcx        # 8-byte Reload
	shrw	$8, %ax
	movq	2040(%rsp), %rdx        # 8-byte Reload
	movb	(%rdx,%rcx), %sil
	movl	$2228, 6612(%rsp)       # imm = 0x8B4
	movzbl	%sil, %edi
	movw	%di, %r8w
	shlw	$8, %r8w
	orw	%ax, %r8w
	movzwl	%r8w, %edi
	movl	%edi, %r9d
	movq	2032(%rsp), %r10        # 8-byte Reload
	movl	(%r10,%r9,4), %edi
	movl	$2230, 6612(%rsp)       # imm = 0x8B6
	addl	$-1, %edi
	movl	%edi, (%r10,%r9,4)
	movl	$2234, 6612(%rsp)       # imm = 0x8BA
	movslq	%edi, %r9
	movl	%ecx, %edi
	movq	2048(%rsp), %r11        # 8-byte Reload
	movl	%edi, (%r11,%r9,4)
	movl	$2238, 6612(%rsp)       # imm = 0x8BE
	movzbl	%sil, %edi
	movl	%edi, %r9d
	movq	%rcx, %rbx
	addq	$-1, %rbx
	movb	-1(%rdx,%rcx), %sil
	movl	$2243, 6612(%rsp)       # imm = 0x8C3
	movzbl	%sil, %edi
	movl	%edi, %r14d
	movq	%r14, %r15
	shlq	$8, %r15
	orq	%r9, %r15
	movl	(%r10,%r15,4), %edi
	movl	$2245, 6612(%rsp)       # imm = 0x8C5
	addl	$-1, %edi
	movl	%edi, (%r10,%r15,4)
	movl	$2249, 6612(%rsp)       # imm = 0x8C9
	movslq	%edi, %r9
	movl	%ebx, %edi
	movl	%edi, (%r11,%r9,4)
	movl	$2252, 6612(%rsp)       # imm = 0x8CC
	movq	%rcx, %r9
	addq	$-2, %r9
	movb	-2(%rdx,%rcx), %sil
	movl	$2257, 6612(%rsp)       # imm = 0x8D1
	movzbl	%sil, %edi
	movl	%edi, %ebx
	shlq	$8, %rbx
	orq	%r14, %rbx
	movl	(%r10,%rbx,4), %edi
	movl	$2259, 6612(%rsp)       # imm = 0x8D3
	addl	$-1, %edi
	movl	%edi, (%r10,%rbx,4)
	movl	$2263, 6612(%rsp)       # imm = 0x8D7
	movslq	%edi, %rbx
	movl	%r9d, %edi
	movl	%edi, (%r11,%rbx,4)
	movl	$2267, 6612(%rsp)       # imm = 0x8DB
	movzbl	%sil, %edi
	movw	%di, %ax
	movq	%rcx, %r9
	addq	$-3, %r9
	movb	-3(%rdx,%rcx), %sil
	movl	$2272, 6612(%rsp)       # imm = 0x8E0
	movzbl	%sil, %edi
	movw	%di, %r8w
	shlw	$8, %r8w
	orw	%ax, %r8w
	movzwl	%r8w, %edi
	movl	%edi, %ebx
	movl	(%r10,%rbx,4), %edi
	movl	$2274, 6612(%rsp)       # imm = 0x8E2
	addl	$-1, %edi
	movl	%edi, (%r10,%rbx,4)
	movl	$2278, 6612(%rsp)       # imm = 0x8E6
	movslq	%edi, %rbx
	movl	%r9d, %edi
	movl	%edi, (%r11,%rbx,4)
	movl	$2290, 6612(%rsp)       # imm = 0x8F2
	movq	%rcx, %r9
	addq	$-4, %r9
	cmpq	$6, %rcx
	movw	%r8w, %ax
	movw	%r8w, 1812(%rsp)        # 2-byte Spill
	movq	%r9, 1816(%rsp)         # 8-byte Spill
	movw	%ax, 1814(%rsp)         # 2-byte Spill
	jg	.LBB18_14
# %bb.15:                               # %for.end189.i
	movb	1871(%rsp), %al         # 1-byte Reload
	testb	$1, %al
	jne	.LBB18_16
	jmp	.LBB18_18
.LBB18_16:                              # %for.body193.lr.ph.i
	movl	1872(%rsp), %eax        # 4-byte Reload
	movslq	%eax, %rcx
	movw	1812(%rsp), %dx         # 2-byte Reload
	movq	%rcx, 1800(%rsp)        # 8-byte Spill
	movw	%dx, 1798(%rsp)         # 2-byte Spill
.LBB18_17:                              # %for.body193.i
                                        # =>This Inner Loop Header: Depth=1
	movw	1798(%rsp), %ax         # 2-byte Reload
	movq	1800(%rsp), %rcx        # 8-byte Reload
	shrw	$8, %ax
	movq	2040(%rsp), %rdx        # 8-byte Reload
	movb	(%rdx,%rcx), %sil
	movl	$2295, 6612(%rsp)       # imm = 0x8F7
	movzbl	%sil, %edi
	movw	%di, %r8w
	shlw	$8, %r8w
	orw	%ax, %r8w
	movzwl	%r8w, %edi
	movl	%edi, %r9d
	movq	2032(%rsp), %r10        # 8-byte Reload
	movl	(%r10,%r9,4), %edi
	movl	$2297, 6612(%rsp)       # imm = 0x8F9
	addl	$-1, %edi
	movl	%edi, (%r10,%r9,4)
	movl	$2301, 6612(%rsp)       # imm = 0x8FD
	movslq	%edi, %r9
	movl	%ecx, %edi
	movq	2048(%rsp), %r11        # 8-byte Reload
	movl	%edi, (%r11,%r9,4)
	movl	$2306, 6612(%rsp)       # imm = 0x902
	movq	%rcx, %r9
	addq	$-1, %r9
	cmpq	$0, %rcx
	movq	%r9, 1800(%rsp)         # 8-byte Spill
	movw	%r8w, 1798(%rsp)        # 2-byte Spill
	jg	.LBB18_17
.LBB18_18:                              # %for.end211.i
	movl	$121, %eax
	movl	%eax, %ecx
	xorps	%xmm0, %xmm0
	movq	1968(%rsp), %rdx        # 8-byte Reload
	movaps	%xmm0, 240(%rdx)
	movaps	%xmm0, 224(%rdx)
	movaps	%xmm0, 208(%rdx)
	movaps	%xmm0, 192(%rdx)
	movaps	%xmm0, 176(%rdx)
	movaps	%xmm0, 160(%rdx)
	movaps	%xmm0, 144(%rdx)
	movaps	%xmm0, 128(%rdx)
	movaps	%xmm0, 112(%rdx)
	movaps	%xmm0, 96(%rdx)
	movaps	%xmm0, 80(%rdx)
	movaps	%xmm0, 64(%rdx)
	movaps	%xmm0, 48(%rdx)
	movaps	%xmm0, 32(%rdx)
	movaps	%xmm0, 16(%rdx)
	movaps	%xmm0, (%rdx)
	movaps	.LCPI18_0(%rip), %xmm0  # xmm0 = [0,1,2,3]
	movaps	%xmm0, 4384(%rsp)
	movl	$2310, 6612(%rsp)       # imm = 0x906
	movaps	.LCPI18_1(%rip), %xmm0  # xmm0 = [4,5,6,7]
	movaps	%xmm0, 4400(%rsp)
	movl	$2314, 6612(%rsp)       # imm = 0x90A
	movaps	.LCPI18_2(%rip), %xmm0  # xmm0 = [8,9,10,11]
	movaps	%xmm0, 4416(%rsp)
	movl	$2318, 6612(%rsp)       # imm = 0x90E
	movaps	.LCPI18_3(%rip), %xmm0  # xmm0 = [12,13,14,15]
	movaps	%xmm0, 4432(%rsp)
	movl	$2322, 6612(%rsp)       # imm = 0x912
	movaps	.LCPI18_4(%rip), %xmm0  # xmm0 = [16,17,18,19]
	movaps	%xmm0, 4448(%rsp)
	movl	$2326, 6612(%rsp)       # imm = 0x916
	movaps	.LCPI18_5(%rip), %xmm0  # xmm0 = [20,21,22,23]
	movaps	%xmm0, 4464(%rsp)
	movl	$2330, 6612(%rsp)       # imm = 0x91A
	movaps	.LCPI18_6(%rip), %xmm0  # xmm0 = [24,25,26,27]
	movaps	%xmm0, 4480(%rsp)
	movl	$2334, 6612(%rsp)       # imm = 0x91E
	movaps	.LCPI18_7(%rip), %xmm0  # xmm0 = [28,29,30,31]
	movaps	%xmm0, 4496(%rsp)
	movl	$2338, 6612(%rsp)       # imm = 0x922
	movaps	.LCPI18_8(%rip), %xmm0  # xmm0 = [32,33,34,35]
	movaps	%xmm0, 4512(%rsp)
	movl	$2342, 6612(%rsp)       # imm = 0x926
	movaps	.LCPI18_9(%rip), %xmm0  # xmm0 = [36,37,38,39]
	movaps	%xmm0, 4528(%rsp)
	movl	$2346, 6612(%rsp)       # imm = 0x92A
	movaps	.LCPI18_10(%rip), %xmm0 # xmm0 = [40,41,42,43]
	movaps	%xmm0, 4544(%rsp)
	movl	$2350, 6612(%rsp)       # imm = 0x92E
	movaps	.LCPI18_11(%rip), %xmm0 # xmm0 = [44,45,46,47]
	movaps	%xmm0, 4560(%rsp)
	movl	$2354, 6612(%rsp)       # imm = 0x932
	movaps	.LCPI18_12(%rip), %xmm0 # xmm0 = [48,49,50,51]
	movaps	%xmm0, 4576(%rsp)
	movl	$2358, 6612(%rsp)       # imm = 0x936
	movaps	.LCPI18_13(%rip), %xmm0 # xmm0 = [52,53,54,55]
	movaps	%xmm0, 4592(%rsp)
	movl	$2362, 6612(%rsp)       # imm = 0x93A
	movaps	.LCPI18_14(%rip), %xmm0 # xmm0 = [56,57,58,59]
	movaps	%xmm0, 4608(%rsp)
	movl	$2366, 6612(%rsp)       # imm = 0x93E
	movaps	.LCPI18_15(%rip), %xmm0 # xmm0 = [60,61,62,63]
	movaps	%xmm0, 4624(%rsp)
	movl	$2370, 6612(%rsp)       # imm = 0x942
	movaps	.LCPI18_16(%rip), %xmm0 # xmm0 = [64,65,66,67]
	movaps	%xmm0, 4640(%rsp)
	movl	$2374, 6612(%rsp)       # imm = 0x946
	movaps	.LCPI18_17(%rip), %xmm0 # xmm0 = [68,69,70,71]
	movaps	%xmm0, 4656(%rsp)
	movl	$2378, 6612(%rsp)       # imm = 0x94A
	movaps	.LCPI18_18(%rip), %xmm0 # xmm0 = [72,73,74,75]
	movaps	%xmm0, 4672(%rsp)
	movl	$2382, 6612(%rsp)       # imm = 0x94E
	movaps	.LCPI18_19(%rip), %xmm0 # xmm0 = [76,77,78,79]
	movaps	%xmm0, 4688(%rsp)
	movl	$2386, 6612(%rsp)       # imm = 0x952
	movaps	.LCPI18_20(%rip), %xmm0 # xmm0 = [80,81,82,83]
	movaps	%xmm0, 4704(%rsp)
	movl	$2390, 6612(%rsp)       # imm = 0x956
	movaps	.LCPI18_21(%rip), %xmm0 # xmm0 = [84,85,86,87]
	movaps	%xmm0, 4720(%rsp)
	movl	$2394, 6612(%rsp)       # imm = 0x95A
	movaps	.LCPI18_22(%rip), %xmm0 # xmm0 = [88,89,90,91]
	movaps	%xmm0, 4736(%rsp)
	movl	$2398, 6612(%rsp)       # imm = 0x95E
	movaps	.LCPI18_23(%rip), %xmm0 # xmm0 = [92,93,94,95]
	movaps	%xmm0, 4752(%rsp)
	movl	$2402, 6612(%rsp)       # imm = 0x962
	movaps	.LCPI18_24(%rip), %xmm0 # xmm0 = [96,97,98,99]
	movaps	%xmm0, 4768(%rsp)
	movl	$2406, 6612(%rsp)       # imm = 0x966
	movaps	.LCPI18_25(%rip), %xmm0 # xmm0 = [100,101,102,103]
	movaps	%xmm0, 4784(%rsp)
	movl	$2410, 6612(%rsp)       # imm = 0x96A
	movaps	.LCPI18_26(%rip), %xmm0 # xmm0 = [104,105,106,107]
	movaps	%xmm0, 4800(%rsp)
	movl	$2414, 6612(%rsp)       # imm = 0x96E
	movaps	.LCPI18_27(%rip), %xmm0 # xmm0 = [108,109,110,111]
	movaps	%xmm0, 4816(%rsp)
	movl	$2418, 6612(%rsp)       # imm = 0x972
	movaps	.LCPI18_28(%rip), %xmm0 # xmm0 = [112,113,114,115]
	movaps	%xmm0, 4832(%rsp)
	movl	$2422, 6612(%rsp)       # imm = 0x976
	movaps	.LCPI18_29(%rip), %xmm0 # xmm0 = [116,117,118,119]
	movaps	%xmm0, 4848(%rsp)
	movl	$2426, 6612(%rsp)       # imm = 0x97A
	movaps	.LCPI18_30(%rip), %xmm0 # xmm0 = [120,121,122,123]
	movaps	%xmm0, 4864(%rsp)
	movl	$2430, 6612(%rsp)       # imm = 0x97E
	movaps	.LCPI18_31(%rip), %xmm0 # xmm0 = [124,125,126,127]
	movaps	%xmm0, 4880(%rsp)
	movl	$2434, 6612(%rsp)       # imm = 0x982
	movaps	.LCPI18_32(%rip), %xmm0 # xmm0 = [128,129,130,131]
	movaps	%xmm0, 4896(%rsp)
	movl	$2438, 6612(%rsp)       # imm = 0x986
	movaps	.LCPI18_33(%rip), %xmm0 # xmm0 = [132,133,134,135]
	movaps	%xmm0, 4912(%rsp)
	movl	$2442, 6612(%rsp)       # imm = 0x98A
	movaps	.LCPI18_34(%rip), %xmm0 # xmm0 = [136,137,138,139]
	movaps	%xmm0, 4928(%rsp)
	movl	$2446, 6612(%rsp)       # imm = 0x98E
	movaps	.LCPI18_35(%rip), %xmm0 # xmm0 = [140,141,142,143]
	movaps	%xmm0, 4944(%rsp)
	movl	$2450, 6612(%rsp)       # imm = 0x992
	movaps	.LCPI18_36(%rip), %xmm0 # xmm0 = [144,145,146,147]
	movaps	%xmm0, 4960(%rsp)
	movl	$2454, 6612(%rsp)       # imm = 0x996
	movaps	.LCPI18_37(%rip), %xmm0 # xmm0 = [148,149,150,151]
	movaps	%xmm0, 4976(%rsp)
	movl	$2458, 6612(%rsp)       # imm = 0x99A
	movaps	.LCPI18_38(%rip), %xmm0 # xmm0 = [152,153,154,155]
	movaps	%xmm0, 4992(%rsp)
	movl	$2462, 6612(%rsp)       # imm = 0x99E
	movaps	.LCPI18_39(%rip), %xmm0 # xmm0 = [156,157,158,159]
	movaps	%xmm0, 5008(%rsp)
	movl	$2466, 6612(%rsp)       # imm = 0x9A2
	movaps	.LCPI18_40(%rip), %xmm0 # xmm0 = [160,161,162,163]
	movaps	%xmm0, 5024(%rsp)
	movl	$2470, 6612(%rsp)       # imm = 0x9A6
	movaps	.LCPI18_41(%rip), %xmm0 # xmm0 = [164,165,166,167]
	movaps	%xmm0, 5040(%rsp)
	movl	$2474, 6612(%rsp)       # imm = 0x9AA
	movaps	.LCPI18_42(%rip), %xmm0 # xmm0 = [168,169,170,171]
	movaps	%xmm0, 5056(%rsp)
	movl	$2478, 6612(%rsp)       # imm = 0x9AE
	movaps	.LCPI18_43(%rip), %xmm0 # xmm0 = [172,173,174,175]
	movaps	%xmm0, 5072(%rsp)
	movl	$2482, 6612(%rsp)       # imm = 0x9B2
	movaps	.LCPI18_44(%rip), %xmm0 # xmm0 = [176,177,178,179]
	movaps	%xmm0, 5088(%rsp)
	movl	$2486, 6612(%rsp)       # imm = 0x9B6
	movaps	.LCPI18_45(%rip), %xmm0 # xmm0 = [180,181,182,183]
	movaps	%xmm0, 5104(%rsp)
	movl	$2490, 6612(%rsp)       # imm = 0x9BA
	movaps	.LCPI18_46(%rip), %xmm0 # xmm0 = [184,185,186,187]
	movaps	%xmm0, 5120(%rsp)
	movl	$2494, 6612(%rsp)       # imm = 0x9BE
	movaps	.LCPI18_47(%rip), %xmm0 # xmm0 = [188,189,190,191]
	movaps	%xmm0, 5136(%rsp)
	movl	$2498, 6612(%rsp)       # imm = 0x9C2
	movaps	.LCPI18_48(%rip), %xmm0 # xmm0 = [192,193,194,195]
	movaps	%xmm0, 5152(%rsp)
	movl	$2502, 6612(%rsp)       # imm = 0x9C6
	movaps	.LCPI18_49(%rip), %xmm0 # xmm0 = [196,197,198,199]
	movaps	%xmm0, 5168(%rsp)
	movl	$2506, 6612(%rsp)       # imm = 0x9CA
	movaps	.LCPI18_50(%rip), %xmm0 # xmm0 = [200,201,202,203]
	movaps	%xmm0, 5184(%rsp)
	movl	$2510, 6612(%rsp)       # imm = 0x9CE
	movaps	.LCPI18_51(%rip), %xmm0 # xmm0 = [204,205,206,207]
	movaps	%xmm0, 5200(%rsp)
	movl	$2514, 6612(%rsp)       # imm = 0x9D2
	movaps	.LCPI18_52(%rip), %xmm0 # xmm0 = [208,209,210,211]
	movaps	%xmm0, 5216(%rsp)
	movl	$2518, 6612(%rsp)       # imm = 0x9D6
	movaps	.LCPI18_53(%rip), %xmm0 # xmm0 = [212,213,214,215]
	movaps	%xmm0, 5232(%rsp)
	movl	$2522, 6612(%rsp)       # imm = 0x9DA
	movaps	.LCPI18_54(%rip), %xmm0 # xmm0 = [216,217,218,219]
	movaps	%xmm0, 5248(%rsp)
	movl	$2526, 6612(%rsp)       # imm = 0x9DE
	movaps	.LCPI18_55(%rip), %xmm0 # xmm0 = [220,221,222,223]
	movaps	%xmm0, 5264(%rsp)
	movl	$2530, 6612(%rsp)       # imm = 0x9E2
	movaps	.LCPI18_56(%rip), %xmm0 # xmm0 = [224,225,226,227]
	movaps	%xmm0, 5280(%rsp)
	movl	$2534, 6612(%rsp)       # imm = 0x9E6
	movaps	.LCPI18_57(%rip), %xmm0 # xmm0 = [228,229,230,231]
	movaps	%xmm0, 5296(%rsp)
	movl	$2538, 6612(%rsp)       # imm = 0x9EA
	movaps	.LCPI18_58(%rip), %xmm0 # xmm0 = [232,233,234,235]
	movaps	%xmm0, 5312(%rsp)
	movl	$2542, 6612(%rsp)       # imm = 0x9EE
	movaps	.LCPI18_59(%rip), %xmm0 # xmm0 = [236,237,238,239]
	movaps	%xmm0, 5328(%rsp)
	movl	$2546, 6612(%rsp)       # imm = 0x9F2
	movaps	.LCPI18_60(%rip), %xmm0 # xmm0 = [240,241,242,243]
	movaps	%xmm0, 5344(%rsp)
	movl	$2550, 6612(%rsp)       # imm = 0x9F6
	movaps	.LCPI18_61(%rip), %xmm0 # xmm0 = [244,245,246,247]
	movaps	%xmm0, 5360(%rsp)
	movl	$2554, 6612(%rsp)       # imm = 0x9FA
	movaps	.LCPI18_62(%rip), %xmm0 # xmm0 = [248,249,250,251]
	movaps	%xmm0, 5376(%rsp)
	movl	$2558, 6612(%rsp)       # imm = 0x9FE
	movaps	.LCPI18_63(%rip), %xmm0 # xmm0 = [252,253,254,255]
	movaps	%xmm0, 5392(%rsp)
	movl	$2565, 6612(%rsp)       # imm = 0xA05
	movq	%rcx, 1784(%rsp)        # 8-byte Spill
.LBB18_19:                              # %for.body230.i
                                        # =>This Loop Header: Depth=1
                                        #     Child Loop BB18_20 Depth 2
	movq	1784(%rsp), %rax        # 8-byte Reload
	movl	4384(%rsp,%rax,4), %ecx
	movl	$2570, 6612(%rsp)       # imm = 0xA0A
	movl	%ecx, %edx
	shll	$8, %edx
	movl	%edx, %esi
	addl	$256, %esi              # imm = 0x100
	movslq	%esi, %rdi
	movq	2032(%rsp), %r8         # 8-byte Reload
	movl	(%r8,%rdi,4), %esi
	movl	$2573, 6612(%rsp)       # imm = 0xA0D
	movslq	%edx, %rdi
	movl	(%r8,%rdi,4), %edx
	movl	$2581, 6612(%rsp)       # imm = 0xA15
	subl	%edx, %esi
	movl	%eax, %edx
	movq	%rax, 1776(%rsp)        # 8-byte Spill
	movl	%ecx, 1772(%rsp)        # 4-byte Spill
	movl	%esi, 1768(%rsp)        # 4-byte Spill
	movl	%edx, 1764(%rsp)        # 4-byte Spill
.LBB18_20:                              # %while.cond.i
                                        #   Parent Loop BB18_19 Depth=1
                                        # =>  This Inner Loop Header: Depth=2
	movl	1764(%rsp), %eax        # 4-byte Reload
	movl	%eax, %ecx
	addl	$-121, %ecx
	movslq	%ecx, %rdx
	movl	4384(%rsp,%rdx,4), %esi
	movl	$2586, 6612(%rsp)       # imm = 0xA1A
	movl	%esi, %edi
	shll	$8, %edi
	movl	%edi, %r8d
	addl	$256, %r8d              # imm = 0x100
	movslq	%r8d, %r9
	movq	2032(%rsp), %r10        # 8-byte Reload
	movl	(%r10,%r9,4), %r8d
	movl	$2589, 6612(%rsp)       # imm = 0xA1D
	movslq	%edi, %r9
	movl	(%r10,%r9,4), %edi
	movl	$2595, 6612(%rsp)       # imm = 0xA23
	subl	%edi, %r8d
	movslq	%eax, %r9
	movl	1768(%rsp), %edi        # 4-byte Reload
	cmpl	%edi, %r8d
	movq	%r9, %r11
	movl	%eax, 1760(%rsp)        # 4-byte Spill
	movl	%ecx, 1756(%rsp)        # 4-byte Spill
	movq	%rdx, 1744(%rsp)        # 8-byte Spill
	movl	%esi, 1740(%rsp)        # 4-byte Spill
	movq	%r9, 1728(%rsp)         # 8-byte Spill
	movq	%r11, 1720(%rsp)        # 8-byte Spill
	jbe	.LBB18_22
# %bb.21:                               # %while.body.i
                                        #   in Loop: Header=BB18_20 Depth=2
	movq	1728(%rsp), %rax        # 8-byte Reload
	movl	1740(%rsp), %ecx        # 4-byte Reload
	movl	%ecx, 4384(%rsp,%rax,4)
	movl	$2600, 6612(%rsp)       # imm = 0xA28
	movl	1760(%rsp), %edx        # 4-byte Reload
	cmpl	$242, %edx
	movl	1756(%rsp), %esi        # 4-byte Reload
	movq	1744(%rsp), %rdi        # 8-byte Reload
	movl	%esi, 1764(%rsp)        # 4-byte Spill
	movq	%rdi, 1720(%rsp)        # 8-byte Spill
	jge	.LBB18_20
.LBB18_22:                              # %zero.i
                                        #   in Loop: Header=BB18_19 Depth=1
	movq	1720(%rsp), %rax        # 8-byte Reload
	movl	1772(%rsp), %ecx        # 4-byte Reload
	movl	%ecx, 4384(%rsp,%rax,4)
	movl	$2609, 6612(%rsp)       # imm = 0xA31
	movq	1776(%rsp), %rax        # 8-byte Reload
	addq	$1, %rax
	movq	1776(%rsp), %rdx        # 8-byte Reload
	cmpq	$255, %rdx
	movq	%rax, 1784(%rsp)        # 8-byte Spill
	jb	.LBB18_19
# %bb.23:                               # %for.body230.i.1.preheader
	movl	$40, %eax
	movl	%eax, %ecx
	movq	%rcx, 1712(%rsp)        # 8-byte Spill
	jmp	.LBB18_152
.LBB18_24:                              # %for.body280.i
                                        # =>This Loop Header: Depth=1
                                        #     Child Loop BB18_25 Depth 2
                                        #       Child Loop BB18_31 Depth 3
                                        #         Child Loop BB18_32 Depth 4
                                        #           Child Loop BB18_62 Depth 5
                                        #             Child Loop BB18_64 Depth 6
                                        #               Child Loop BB18_65 Depth 7
                                        #             Child Loop BB18_74 Depth 6
                                        #               Child Loop BB18_75 Depth 7
                                        #         Child Loop BB18_88 Depth 4
                                        #         Child Loop BB18_91 Depth 4
                                        #         Child Loop BB18_96 Depth 4
                                        #         Child Loop BB18_99 Depth 4
                                        #         Child Loop BB18_37 Depth 4
                                        #         Child Loop BB18_40 Depth 4
                                        #           Child Loop BB18_43 Depth 5
                                        #             Child Loop BB18_46 Depth 6
                                        #             Child Loop BB18_51 Depth 6
                                        #             Child Loop BB18_56 Depth 6
                                        #     Child Loop BB18_109 Depth 2
                                        #     Child Loop BB18_112 Depth 2
                                        #     Child Loop BB18_117 Depth 2
                                        #     Child Loop BB18_124 Depth 2
                                        #     Child Loop BB18_127 Depth 2
                                        #     Child Loop BB18_130 Depth 2
	movl	1708(%rsp), %eax        # 4-byte Reload
	movq	1696(%rsp), %rcx        # 8-byte Reload
	xorl	%edx, %edx
	movl	%edx, %esi
	movl	4384(%rsp,%rcx,4), %edx
	movl	$2621, 6612(%rsp)       # imm = 0xA3D
	movl	%edx, %edi
	shll	$8, %edi
	movslq	%edi, %r8
	movl	%edx, %r9d
	movl	%r9d, %r10d
	movq	%rsi, 1688(%rsp)        # 8-byte Spill
	movq	%rcx, 1680(%rsp)        # 8-byte Spill
	movq	%r10, 1672(%rsp)        # 8-byte Spill
	movl	%edx, 1668(%rsp)        # 4-byte Spill
	movl	%edi, 1664(%rsp)        # 4-byte Spill
	movq	%r8, 1656(%rsp)         # 8-byte Spill
	movl	%eax, 1652(%rsp)        # 4-byte Spill
.LBB18_25:                              # %for.body286.i
                                        #   Parent Loop BB18_24 Depth=1
                                        # =>  This Loop Header: Depth=2
                                        #       Child Loop BB18_31 Depth 3
                                        #         Child Loop BB18_32 Depth 4
                                        #           Child Loop BB18_62 Depth 5
                                        #             Child Loop BB18_64 Depth 6
                                        #               Child Loop BB18_65 Depth 7
                                        #             Child Loop BB18_74 Depth 6
                                        #               Child Loop BB18_75 Depth 7
                                        #         Child Loop BB18_88 Depth 4
                                        #         Child Loop BB18_91 Depth 4
                                        #         Child Loop BB18_96 Depth 4
                                        #         Child Loop BB18_99 Depth 4
                                        #         Child Loop BB18_37 Depth 4
                                        #         Child Loop BB18_40 Depth 4
                                        #           Child Loop BB18_43 Depth 5
                                        #             Child Loop BB18_46 Depth 6
                                        #             Child Loop BB18_51 Depth 6
                                        #             Child Loop BB18_56 Depth 6
	movl	1652(%rsp), %eax        # 4-byte Reload
	movq	1688(%rsp), %rcx        # 8-byte Reload
	movq	1672(%rsp), %rdx        # 8-byte Reload
	cmpq	%rdx, %rcx
	movl	%eax, %esi
	movl	%eax, 1648(%rsp)        # 4-byte Spill
	movq	%rcx, 1640(%rsp)        # 8-byte Spill
	movl	%esi, 1636(%rsp)        # 4-byte Spill
	je	.LBB18_105
# %bb.26:                               # %if.then289.i
                                        #   in Loop: Header=BB18_25 Depth=2
	movq	1640(%rsp), %rax        # 8-byte Reload
	movq	1656(%rsp), %rcx        # 8-byte Reload
	addq	%rcx, %rax
	movq	%rax, %rdx
	shlq	$2, %rdx
	movq	2032(%rsp), %rsi        # 8-byte Reload
	addq	%rdx, %rsi
	movq	2032(%rsp), %rdx        # 8-byte Reload
	movl	(%rdx,%rax,4), %edi
	movl	$2628, 6612(%rsp)       # imm = 0xA44
	movl	%edi, %r8d
	andl	$2097152, %r8d          # imm = 0x200000
	cmpl	$0, %r8d
	movl	%edi, %r8d
	movl	1648(%rsp), %r9d        # 4-byte Reload
	movq	%rax, 1624(%rsp)        # 8-byte Spill
	movq	%rsi, 1616(%rsp)        # 8-byte Spill
	movl	%edi, 1612(%rsp)        # 4-byte Spill
	movl	%r8d, 1608(%rsp)        # 4-byte Spill
	movl	%r9d, 1604(%rsp)        # 4-byte Spill
	jne	.LBB18_104
# %bb.27:                               # %if.then294.i
                                        #   in Loop: Header=BB18_25 Depth=2
	movl	1612(%rsp), %eax        # 4-byte Reload
	andl	$-2097153, %eax         # imm = 0xFFDFFFFF
	movq	2032(%rsp), %rcx        # 8-byte Reload
	movq	1624(%rsp), %rdx        # 8-byte Reload
	movl	4(%rcx,%rdx,4), %esi
	movl	$2634, 6612(%rsp)       # imm = 0xA4A
	andl	$-2097153, %esi         # imm = 0xFFDFFFFF
	addl	$-1, %esi
	cmpl	%eax, %esi
	movl	1612(%rsp), %edi        # 4-byte Reload
	movl	1648(%rsp), %r8d        # 4-byte Reload
	movl	%eax, 1600(%rsp)        # 4-byte Spill
	movl	%esi, 1596(%rsp)        # 4-byte Spill
	movl	%edi, 1608(%rsp)        # 4-byte Spill
	movl	%r8d, 1604(%rsp)        # 4-byte Spill
	jle	.LBB18_104
# %bb.28:                               # %if.then305.i
                                        #   in Loop: Header=BB18_25 Depth=2
	movb	1935(%rsp), %al         # 1-byte Reload
	testb	$1, %al
	jne	.LBB18_29
	jmp	.LBB18_30
.LBB18_29:                              # %if.then308.i
                                        #   in Loop: Header=BB18_25 Depth=2
	movabsq	$.L.str.7.2, %rsi
	movl	$1, %eax
	movq	stderr, %rdi
	movl	$2648, 6612(%rsp)       # imm = 0xA58
	movl	1600(%rsp), %ecx        # 4-byte Reload
	subl	%ecx, %eax
	movl	1596(%rsp), %edx        # 4-byte Reload
	addl	%edx, %eax
	movq	1640(%rsp), %r8         # 8-byte Reload
	movl	%r8d, %r9d
	movl	1668(%rsp), %edx        # 4-byte Reload
	movl	%r9d, %ecx
	movl	1648(%rsp), %r8d        # 4-byte Reload
	movl	%eax, %r9d
	movb	$0, %al
	callq	fprintf
	movl	%eax, 1592(%rsp)        # 4-byte Spill
.LBB18_30:                              # %if.end312.i
                                        #   in Loop: Header=BB18_25 Depth=2
	movl	$1, %eax
	movq	1584(%rsp), %rcx        # 8-byte Reload
	movl	1600(%rsp), %edx        # 4-byte Reload
	movl	%edx, (%rcx)
	movl	$2650, 6612(%rsp)       # imm = 0xA5A
	movq	1576(%rsp), %rsi        # 8-byte Reload
	movl	1596(%rsp), %edi        # 4-byte Reload
	movl	%edi, (%rsi)
	movl	$2652, 6612(%rsp)       # imm = 0xA5C
	movq	1568(%rsp), %r8         # 8-byte Reload
	movl	$2, (%r8)
	movl	$2671, 6612(%rsp)       # imm = 0xA6F
	movl	%eax, 1564(%rsp)        # 4-byte Spill
.LBB18_31:                              # %while.body.lr.ph.i.i
                                        #   Parent Loop BB18_24 Depth=1
                                        #     Parent Loop BB18_25 Depth=2
                                        # =>    This Loop Header: Depth=3
                                        #         Child Loop BB18_32 Depth 4
                                        #           Child Loop BB18_62 Depth 5
                                        #             Child Loop BB18_64 Depth 6
                                        #               Child Loop BB18_65 Depth 7
                                        #             Child Loop BB18_74 Depth 6
                                        #               Child Loop BB18_75 Depth 7
                                        #         Child Loop BB18_88 Depth 4
                                        #         Child Loop BB18_91 Depth 4
                                        #         Child Loop BB18_96 Depth 4
                                        #         Child Loop BB18_99 Depth 4
                                        #         Child Loop BB18_37 Depth 4
                                        #         Child Loop BB18_40 Depth 4
                                        #           Child Loop BB18_43 Depth 5
                                        #             Child Loop BB18_46 Depth 6
                                        #             Child Loop BB18_51 Depth 6
                                        #             Child Loop BB18_56 Depth 6
	movl	1564(%rsp), %eax        # 4-byte Reload
	leaq	5408(%rsp), %rcx
	leaq	5808(%rsp), %rdx
	leaq	6208(%rsp), %rsi
	cmpl	$100, %eax
	setl	%dil
	movl	%eax, %r8d
	addl	$-1, %r8d
	movslq	%r8d, %r9
	movq	%r9, %r10
	shlq	$2, %r10
	addq	%r10, %rsi
	movq	%r9, %r10
	shlq	$2, %r10
	addq	%r10, %rdx
	shlq	$2, %r9
	addq	%r9, %rcx
	movl	%eax, 1560(%rsp)        # 4-byte Spill
	movq	%rcx, 1552(%rsp)        # 8-byte Spill
	movq	%rdx, 1544(%rsp)        # 8-byte Spill
	movq	%rsi, 1536(%rsp)        # 8-byte Spill
	movb	%dil, 1535(%rsp)        # 1-byte Spill
	movl	%r8d, 1528(%rsp)        # 4-byte Spill
.LBB18_32:                              # %while.body.i.i
                                        #   Parent Loop BB18_24 Depth=1
                                        #     Parent Loop BB18_25 Depth=2
                                        #       Parent Loop BB18_31 Depth=3
                                        # =>      This Loop Header: Depth=4
                                        #           Child Loop BB18_62 Depth 5
                                        #             Child Loop BB18_64 Depth 6
                                        #               Child Loop BB18_65 Depth 7
                                        #             Child Loop BB18_74 Depth 6
                                        #               Child Loop BB18_75 Depth 7
	movb	1535(%rsp), %al         # 1-byte Reload
	testb	$1, %al
	jne	.LBB18_34
	jmp	.LBB18_33
.LBB18_33:                              # %if.then.i.i
                                        #   in Loop: Header=BB18_32 Depth=4
	movl	$1001, %edi             # imm = 0x3E9
	callq	BZ2_bz__AssertH__fail
.LBB18_34:                              # %if.end.i.i
                                        #   in Loop: Header=BB18_32 Depth=4
	movq	1536(%rsp), %rax        # 8-byte Reload
	movl	(%rax), %ecx
	movl	$2672, 6612(%rsp)       # imm = 0xA70
	movq	1544(%rsp), %rdx        # 8-byte Reload
	movl	(%rdx), %esi
	movl	$2673, 6612(%rsp)       # imm = 0xA71
	movq	1552(%rsp), %rdi        # 8-byte Reload
	movl	(%rdi), %r8d
	movl	$2685, 6612(%rsp)       # imm = 0xA7D
	movl	%esi, %r9d
	subl	%ecx, %r9d
	cmpl	$20, %r9d
	setl	%r10b
	cmpl	$14, %r8d
	setg	%r11b
	orb	%r11b, %r10b
	testb	$1, %r10b
	movl	%ecx, 1524(%rsp)        # 4-byte Spill
	movl	%esi, 1520(%rsp)        # 4-byte Spill
	movl	%r8d, 1516(%rsp)        # 4-byte Spill
	movl	%r9d, 1512(%rsp)        # 4-byte Spill
	jne	.LBB18_35
	jmp	.LBB18_61
.LBB18_35:                              # %if.then14.i.i
                                        #   in Loop: Header=BB18_31 Depth=3
	movl	1512(%rsp), %eax        # 4-byte Reload
	cmpl	$1, %eax
	jl	.LBB18_59
# %bb.36:                               # %while.cond.i.i.i.preheader
                                        #   in Loop: Header=BB18_31 Depth=3
	xorl	%eax, %eax
	movl	%eax, %ecx
	movq	%rcx, 1504(%rsp)        # 8-byte Spill
	jmp	.LBB18_37
.LBB18_37:                              # %while.cond.i.i.i
                                        #   Parent Loop BB18_24 Depth=1
                                        #     Parent Loop BB18_25 Depth=2
                                        #       Parent Loop BB18_31 Depth=3
                                        # =>      This Inner Loop Header: Depth=4
	movq	1504(%rsp), %rax        # 8-byte Reload
	movl	incs(,%rax,4), %ecx
	movl	$2698, 6612(%rsp)       # imm = 0xA8A
	movq	%rax, %rdx
	addq	$1, %rdx
	movl	1512(%rsp), %esi        # 4-byte Reload
	cmpl	%esi, %ecx
	movq	%rax, 1496(%rsp)        # 8-byte Spill
	movq	%rdx, 1504(%rsp)        # 8-byte Spill
	jle	.LBB18_37
# %bb.38:                               # %while.end.i.i.i
                                        #   in Loop: Header=BB18_31 Depth=3
	movq	1496(%rsp), %rax        # 8-byte Reload
	movl	%eax, %ecx
	cmpl	$0, %ecx
	je	.LBB18_59
# %bb.39:                               # %for.body.lr.ph.i.i.i
                                        #   in Loop: Header=BB18_31 Depth=3
	movl	1520(%rsp), %eax        # 4-byte Reload
	movslq	%eax, %rcx
	movq	1496(%rsp), %rdx        # 8-byte Reload
	shlq	$32, %rdx
	sarq	$32, %rdx
	movq	%rcx, 1488(%rsp)        # 8-byte Spill
	movq	%rdx, 1480(%rsp)        # 8-byte Spill
.LBB18_40:                              # %for.body.i.i.i
                                        #   Parent Loop BB18_24 Depth=1
                                        #     Parent Loop BB18_25 Depth=2
                                        #       Parent Loop BB18_31 Depth=3
                                        # =>      This Loop Header: Depth=4
                                        #           Child Loop BB18_43 Depth 5
                                        #             Child Loop BB18_46 Depth 6
                                        #             Child Loop BB18_51 Depth 6
                                        #             Child Loop BB18_56 Depth 6
	movq	1480(%rsp), %rax        # 8-byte Reload
	movq	%rax, %rcx
	addq	$-1, %rcx
	movl	incs-4(,%rax,4), %edx
	movl	$2710, 6612(%rsp)       # imm = 0xA96
	movl	%edx, %esi
	movl	1524(%rsp), %edi        # 4-byte Reload
	addl	%edi, %esi
	movl	1520(%rsp), %r8d        # 4-byte Reload
	cmpl	%r8d, %esi
	movq	%rax, 1472(%rsp)        # 8-byte Spill
	movq	%rcx, 1464(%rsp)        # 8-byte Spill
	movl	%edx, 1460(%rsp)        # 4-byte Spill
	movl	%esi, 1456(%rsp)        # 4-byte Spill
	jg	.LBB18_58
# %bb.41:                               # %if.end10.lr.ph.i.i.i
                                        #   in Loop: Header=BB18_40 Depth=4
	movl	1456(%rsp), %eax        # 4-byte Reload
	movslq	%eax, %rcx
	movl	1460(%rsp), %edx        # 4-byte Reload
	movslq	%edx, %rsi
	movq	%rsi, 1448(%rsp)        # 8-byte Spill
	movq	%rcx, 1440(%rsp)        # 8-byte Spill
	jmp	.LBB18_43
.LBB18_42:                              # %while.cond6.i.i.i
                                        #   in Loop: Header=BB18_43 Depth=5
	movq	1432(%rsp), %rax        # 8-byte Reload
	movq	1488(%rsp), %rcx        # 8-byte Reload
	cmpq	%rcx, %rax
	movq	%rax, 1440(%rsp)        # 8-byte Spill
	jg	.LBB18_58
.LBB18_43:                              # %if.end10.i.i.i
                                        #   Parent Loop BB18_24 Depth=1
                                        #     Parent Loop BB18_25 Depth=2
                                        #       Parent Loop BB18_31 Depth=3
                                        #         Parent Loop BB18_40 Depth=4
                                        # =>        This Loop Header: Depth=5
                                        #             Child Loop BB18_46 Depth 6
                                        #             Child Loop BB18_51 Depth 6
                                        #             Child Loop BB18_56 Depth 6
	movq	1440(%rsp), %rax        # 8-byte Reload
	leaq	2076(%rsp), %r9
	movq	2048(%rsp), %rcx        # 8-byte Reload
	movl	(%rcx,%rax,4), %edx
	movl	$2713, 6612(%rsp)       # imm = 0xA99
	movq	%rax, %rsi
	movq	1448(%rsp), %rdi        # 8-byte Reload
	subq	%rdi, %rsi
	movq	%rsi, %r8
	shlq	$2, %r8
	addq	%r8, %rcx
	movq	2048(%rsp), %r8         # 8-byte Reload
	movl	(%r8,%rsi,4), %r10d
	movl	$2727, 6612(%rsp)       # imm = 0xAA7
	movl	1516(%rsp), %r11d       # 4-byte Reload
	addl	%r11d, %r10d
	movl	%edx, %ebx
	addl	%r11d, %ebx
	movl	%r10d, %edi
	movq	%rsi, 1424(%rsp)        # 8-byte Spill
	movl	%ebx, %esi
	movq	2040(%rsp), %r14        # 8-byte Reload
	movl	%edx, 1420(%rsp)        # 4-byte Spill
	movq	%r14, %rdx
	movq	1976(%rsp), %r15        # 8-byte Reload
	movq	%rcx, 1408(%rsp)        # 8-byte Spill
	movq	%r15, %rcx
	movl	2020(%rsp), %r8d        # 4-byte Reload
	movq	%rax, 1400(%rsp)        # 8-byte Spill
	movl	%ebx, 1396(%rsp)        # 4-byte Spill
	callq	mainGtU
	movq	1400(%rsp), %rcx        # 8-byte Reload
	movl	%ecx, %esi
	cmpb	$0, %al
	movl	%esi, %edi
	movl	%esi, 1392(%rsp)        # 4-byte Spill
	movl	%edi, 1388(%rsp)        # 4-byte Spill
	je	.LBB18_47
# %bb.44:                               # %while.body19.lr.ph.i.i.i
                                        #   in Loop: Header=BB18_43 Depth=5
	movq	1424(%rsp), %rax        # 8-byte Reload
	movl	%eax, %ecx
	movq	1408(%rsp), %rdx        # 8-byte Reload
	movl	1392(%rsp), %esi        # 4-byte Reload
	movq	%rdx, 1376(%rsp)        # 8-byte Spill
	movl	%ecx, 1372(%rsp)        # 4-byte Spill
	movl	%esi, 1368(%rsp)        # 4-byte Spill
	jmp	.LBB18_46
.LBB18_45:                              # %while.cond13.i.i.i
                                        #   in Loop: Header=BB18_46 Depth=6
	leaq	2076(%rsp), %r9
	movl	1364(%rsp), %eax        # 4-byte Reload
	movl	1460(%rsp), %ecx        # 4-byte Reload
	subl	%ecx, %eax
	movslq	%eax, %rdx
	movq	%rdx, %rsi
	shlq	$2, %rsi
	movq	2048(%rsp), %rdi        # 8-byte Reload
	addq	%rsi, %rdi
	movq	2048(%rsp), %rsi        # 8-byte Reload
	movl	(%rsi,%rdx,4), %r8d
	movl	$2735, 6612(%rsp)       # imm = 0xAAF
	movl	1516(%rsp), %r10d       # 4-byte Reload
	addl	%r10d, %r8d
	movq	%rdi, 1352(%rsp)        # 8-byte Spill
	movl	%r8d, %edi
	movl	1396(%rsp), %esi        # 4-byte Reload
	movq	2040(%rsp), %rdx        # 8-byte Reload
	movq	1976(%rsp), %rcx        # 8-byte Reload
	movl	2020(%rsp), %r8d        # 4-byte Reload
	movl	%eax, 1348(%rsp)        # 4-byte Spill
	callq	mainGtU
	cmpb	$0, %al
	movq	1352(%rsp), %rcx        # 8-byte Reload
	movl	1348(%rsp), %esi        # 4-byte Reload
	movl	1364(%rsp), %edi        # 4-byte Reload
	movl	1364(%rsp), %r8d        # 4-byte Reload
	movq	%rcx, 1376(%rsp)        # 8-byte Spill
	movl	%esi, 1372(%rsp)        # 4-byte Spill
	movl	%edi, 1368(%rsp)        # 4-byte Spill
	movl	%r8d, 1388(%rsp)        # 4-byte Spill
	je	.LBB18_47
.LBB18_46:                              # %while.body19.i.i.i
                                        #   Parent Loop BB18_24 Depth=1
                                        #     Parent Loop BB18_25 Depth=2
                                        #       Parent Loop BB18_31 Depth=3
                                        #         Parent Loop BB18_40 Depth=4
                                        #           Parent Loop BB18_43 Depth=5
                                        # =>          This Inner Loop Header: Depth=6
	movl	1368(%rsp), %eax        # 4-byte Reload
	movl	1372(%rsp), %ecx        # 4-byte Reload
	movq	1376(%rsp), %rdx        # 8-byte Reload
	movl	(%rdx), %esi
	movl	$2738, 6612(%rsp)       # imm = 0xAB2
	movslq	%eax, %rdx
	movq	2048(%rsp), %rdi        # 8-byte Reload
	movl	%esi, (%rdi,%rdx,4)
	movl	$2744, 6612(%rsp)       # imm = 0xAB8
	movl	1456(%rsp), %eax        # 4-byte Reload
	cmpl	%eax, %ecx
	movl	%ecx, %esi
	movl	%ecx, 1364(%rsp)        # 4-byte Spill
	movl	%esi, 1388(%rsp)        # 4-byte Spill
	jge	.LBB18_45
.LBB18_47:                              # %while.end31.i.i.i
                                        #   in Loop: Header=BB18_43 Depth=5
	movl	1388(%rsp), %eax        # 4-byte Reload
	movslq	%eax, %rcx
	movq	2048(%rsp), %rdx        # 8-byte Reload
	movl	1420(%rsp), %eax        # 4-byte Reload
	movl	%eax, (%rdx,%rcx,4)
	movl	$2749, 6612(%rsp)       # imm = 0xABD
	movq	1400(%rsp), %rcx        # 8-byte Reload
	addq	$1, %rcx
	movq	1400(%rsp), %rsi        # 8-byte Reload
	movq	1488(%rsp), %rdi        # 8-byte Reload
	cmpq	%rdi, %rsi
	movq	%rcx, 1336(%rsp)        # 8-byte Spill
	jge	.LBB18_58
# %bb.48:                               # %if.end37.i.i.i
                                        #   in Loop: Header=BB18_43 Depth=5
	leaq	2076(%rsp), %r9
	movq	2048(%rsp), %rax        # 8-byte Reload
	movq	1336(%rsp), %rcx        # 8-byte Reload
	movl	(%rax,%rcx,4), %edx
	movl	$2752, 6612(%rsp)       # imm = 0xAC0
	movq	1448(%rsp), %rsi        # 8-byte Reload
	subq	%rsi, %rcx
	movq	%rcx, %rdi
	shlq	$2, %rdi
	addq	%rdi, %rax
	movq	2048(%rsp), %rdi        # 8-byte Reload
	movl	(%rdi,%rcx,4), %r8d
	movl	$2764, 6612(%rsp)       # imm = 0xACC
	movl	1516(%rsp), %r10d       # 4-byte Reload
	addl	%r10d, %r8d
	movl	%edx, %r11d
	addl	%r10d, %r11d
	movl	%r8d, %edi
	movl	%r11d, %esi
	movq	2040(%rsp), %rbx        # 8-byte Reload
	movl	%edx, 1332(%rsp)        # 4-byte Spill
	movq	%rbx, %rdx
	movq	1976(%rsp), %r14        # 8-byte Reload
	movq	%rcx, 1320(%rsp)        # 8-byte Spill
	movq	%r14, %rcx
	movl	2020(%rsp), %r8d        # 4-byte Reload
	movq	%rax, 1312(%rsp)        # 8-byte Spill
	movl	%r11d, 1308(%rsp)       # 4-byte Spill
	callq	mainGtU
	movq	1336(%rsp), %rcx        # 8-byte Reload
	movl	%ecx, %esi
	cmpb	$0, %al
	movl	%esi, %edi
	movl	%esi, 1304(%rsp)        # 4-byte Spill
	movl	%edi, 1300(%rsp)        # 4-byte Spill
	je	.LBB18_52
# %bb.49:                               # %while.body48.lr.ph.i.i.i
                                        #   in Loop: Header=BB18_43 Depth=5
	movq	1320(%rsp), %rax        # 8-byte Reload
	movl	%eax, %ecx
	movq	1312(%rsp), %rdx        # 8-byte Reload
	movl	1304(%rsp), %esi        # 4-byte Reload
	movq	%rdx, 1288(%rsp)        # 8-byte Spill
	movl	%ecx, 1284(%rsp)        # 4-byte Spill
	movl	%esi, 1280(%rsp)        # 4-byte Spill
	jmp	.LBB18_51
.LBB18_50:                              # %while.cond40.i.i.i
                                        #   in Loop: Header=BB18_51 Depth=6
	leaq	2076(%rsp), %r9
	movl	1276(%rsp), %eax        # 4-byte Reload
	movl	1460(%rsp), %ecx        # 4-byte Reload
	subl	%ecx, %eax
	movslq	%eax, %rdx
	movq	%rdx, %rsi
	shlq	$2, %rsi
	movq	2048(%rsp), %rdi        # 8-byte Reload
	addq	%rsi, %rdi
	movq	2048(%rsp), %rsi        # 8-byte Reload
	movl	(%rsi,%rdx,4), %r8d
	movl	$2772, 6612(%rsp)       # imm = 0xAD4
	movl	1516(%rsp), %r10d       # 4-byte Reload
	addl	%r10d, %r8d
	movq	%rdi, 1264(%rsp)        # 8-byte Spill
	movl	%r8d, %edi
	movl	1308(%rsp), %esi        # 4-byte Reload
	movq	2040(%rsp), %rdx        # 8-byte Reload
	movq	1976(%rsp), %rcx        # 8-byte Reload
	movl	2020(%rsp), %r8d        # 4-byte Reload
	movl	%eax, 1260(%rsp)        # 4-byte Spill
	callq	mainGtU
	cmpb	$0, %al
	movq	1264(%rsp), %rcx        # 8-byte Reload
	movl	1260(%rsp), %esi        # 4-byte Reload
	movl	1276(%rsp), %edi        # 4-byte Reload
	movl	1276(%rsp), %r8d        # 4-byte Reload
	movq	%rcx, 1288(%rsp)        # 8-byte Spill
	movl	%esi, 1284(%rsp)        # 4-byte Spill
	movl	%edi, 1280(%rsp)        # 4-byte Spill
	movl	%r8d, 1300(%rsp)        # 4-byte Spill
	je	.LBB18_52
.LBB18_51:                              # %while.body48.i.i.i
                                        #   Parent Loop BB18_24 Depth=1
                                        #     Parent Loop BB18_25 Depth=2
                                        #       Parent Loop BB18_31 Depth=3
                                        #         Parent Loop BB18_40 Depth=4
                                        #           Parent Loop BB18_43 Depth=5
                                        # =>          This Inner Loop Header: Depth=6
	movl	1280(%rsp), %eax        # 4-byte Reload
	movl	1284(%rsp), %ecx        # 4-byte Reload
	movq	1288(%rsp), %rdx        # 8-byte Reload
	movl	(%rdx), %esi
	movl	$2775, 6612(%rsp)       # imm = 0xAD7
	movslq	%eax, %rdx
	movq	2048(%rsp), %rdi        # 8-byte Reload
	movl	%esi, (%rdi,%rdx,4)
	movl	$2781, 6612(%rsp)       # imm = 0xADD
	movl	1456(%rsp), %eax        # 4-byte Reload
	cmpl	%eax, %ecx
	movl	%ecx, %esi
	movl	%ecx, 1276(%rsp)        # 4-byte Spill
	movl	%esi, 1300(%rsp)        # 4-byte Spill
	jge	.LBB18_50
.LBB18_52:                              # %while.end60.i.i.i
                                        #   in Loop: Header=BB18_43 Depth=5
	movl	1300(%rsp), %eax        # 4-byte Reload
	movslq	%eax, %rcx
	movq	2048(%rsp), %rdx        # 8-byte Reload
	movl	1332(%rsp), %eax        # 4-byte Reload
	movl	%eax, (%rdx,%rcx,4)
	movl	$2786, 6612(%rsp)       # imm = 0xAE2
	movq	1400(%rsp), %rcx        # 8-byte Reload
	addq	$2, %rcx
	movq	1488(%rsp), %rsi        # 8-byte Reload
	cmpq	%rsi, %rcx
	movq	%rcx, 1248(%rsp)        # 8-byte Spill
	jg	.LBB18_58
# %bb.53:                               # %if.end66.i.i.i
                                        #   in Loop: Header=BB18_43 Depth=5
	leaq	2076(%rsp), %r9
	movq	2048(%rsp), %rax        # 8-byte Reload
	movq	1248(%rsp), %rcx        # 8-byte Reload
	movl	(%rax,%rcx,4), %edx
	movl	$2789, 6612(%rsp)       # imm = 0xAE5
	movq	1448(%rsp), %rsi        # 8-byte Reload
	subq	%rsi, %rcx
	movq	%rcx, %rdi
	shlq	$2, %rdi
	addq	%rdi, %rax
	movq	2048(%rsp), %rdi        # 8-byte Reload
	movl	(%rdi,%rcx,4), %r8d
	movl	$2801, 6612(%rsp)       # imm = 0xAF1
	movl	1516(%rsp), %r10d       # 4-byte Reload
	addl	%r10d, %r8d
	movl	%edx, %r11d
	addl	%r10d, %r11d
	movl	%r8d, %edi
	movl	%r11d, %esi
	movq	2040(%rsp), %rbx        # 8-byte Reload
	movl	%edx, 1244(%rsp)        # 4-byte Spill
	movq	%rbx, %rdx
	movq	1976(%rsp), %r14        # 8-byte Reload
	movq	%rcx, 1232(%rsp)        # 8-byte Spill
	movq	%r14, %rcx
	movl	2020(%rsp), %r8d        # 4-byte Reload
	movq	%rax, 1224(%rsp)        # 8-byte Spill
	movl	%r11d, 1220(%rsp)       # 4-byte Spill
	callq	mainGtU
	movq	1248(%rsp), %rcx        # 8-byte Reload
	movl	%ecx, %esi
	cmpb	$0, %al
	movl	%esi, %edi
	movl	%esi, 1216(%rsp)        # 4-byte Spill
	movl	%edi, 1212(%rsp)        # 4-byte Spill
	je	.LBB18_57
# %bb.54:                               # %while.body77.lr.ph.i.i.i
                                        #   in Loop: Header=BB18_43 Depth=5
	movq	1232(%rsp), %rax        # 8-byte Reload
	movl	%eax, %ecx
	movq	1224(%rsp), %rdx        # 8-byte Reload
	movl	1216(%rsp), %esi        # 4-byte Reload
	movq	%rdx, 1200(%rsp)        # 8-byte Spill
	movl	%ecx, 1196(%rsp)        # 4-byte Spill
	movl	%esi, 1192(%rsp)        # 4-byte Spill
	jmp	.LBB18_56
.LBB18_55:                              # %while.cond69.i.i.i
                                        #   in Loop: Header=BB18_56 Depth=6
	leaq	2076(%rsp), %r9
	movl	1188(%rsp), %eax        # 4-byte Reload
	movl	1460(%rsp), %ecx        # 4-byte Reload
	subl	%ecx, %eax
	movslq	%eax, %rdx
	movq	%rdx, %rsi
	shlq	$2, %rsi
	movq	2048(%rsp), %rdi        # 8-byte Reload
	addq	%rsi, %rdi
	movq	2048(%rsp), %rsi        # 8-byte Reload
	movl	(%rsi,%rdx,4), %r8d
	movl	$2809, 6612(%rsp)       # imm = 0xAF9
	movl	1516(%rsp), %r10d       # 4-byte Reload
	addl	%r10d, %r8d
	movq	%rdi, 1176(%rsp)        # 8-byte Spill
	movl	%r8d, %edi
	movl	1220(%rsp), %esi        # 4-byte Reload
	movq	2040(%rsp), %rdx        # 8-byte Reload
	movq	1976(%rsp), %rcx        # 8-byte Reload
	movl	2020(%rsp), %r8d        # 4-byte Reload
	movl	%eax, 1172(%rsp)        # 4-byte Spill
	callq	mainGtU
	cmpb	$0, %al
	movq	1176(%rsp), %rcx        # 8-byte Reload
	movl	1172(%rsp), %esi        # 4-byte Reload
	movl	1188(%rsp), %edi        # 4-byte Reload
	movl	1188(%rsp), %r8d        # 4-byte Reload
	movq	%rcx, 1200(%rsp)        # 8-byte Spill
	movl	%esi, 1196(%rsp)        # 4-byte Spill
	movl	%edi, 1192(%rsp)        # 4-byte Spill
	movl	%r8d, 1212(%rsp)        # 4-byte Spill
	je	.LBB18_57
.LBB18_56:                              # %while.body77.i.i.i
                                        #   Parent Loop BB18_24 Depth=1
                                        #     Parent Loop BB18_25 Depth=2
                                        #       Parent Loop BB18_31 Depth=3
                                        #         Parent Loop BB18_40 Depth=4
                                        #           Parent Loop BB18_43 Depth=5
                                        # =>          This Inner Loop Header: Depth=6
	movl	1192(%rsp), %eax        # 4-byte Reload
	movl	1196(%rsp), %ecx        # 4-byte Reload
	movq	1200(%rsp), %rdx        # 8-byte Reload
	movl	(%rdx), %esi
	movl	$2812, 6612(%rsp)       # imm = 0xAFC
	movslq	%eax, %rdx
	movq	2048(%rsp), %rdi        # 8-byte Reload
	movl	%esi, (%rdi,%rdx,4)
	movl	$2818, 6612(%rsp)       # imm = 0xB02
	movl	1456(%rsp), %eax        # 4-byte Reload
	cmpl	%eax, %ecx
	movl	%ecx, %esi
	movl	%ecx, 1188(%rsp)        # 4-byte Spill
	movl	%esi, 1212(%rsp)        # 4-byte Spill
	jge	.LBB18_55
.LBB18_57:                              # %while.end89.i.i.i
                                        #   in Loop: Header=BB18_43 Depth=5
	movl	1212(%rsp), %eax        # 4-byte Reload
	movslq	%eax, %rcx
	movq	2048(%rsp), %rdx        # 8-byte Reload
	movl	1244(%rsp), %eax        # 4-byte Reload
	movl	%eax, (%rdx,%rcx,4)
	movl	$2819, 6612(%rsp)       # imm = 0xB03
	movl	2076(%rsp), %esi
	movl	$2824, 6612(%rsp)       # imm = 0xB08
	movq	1400(%rsp), %rcx        # 8-byte Reload
	addq	$3, %rcx
	cmpl	$0, %esi
	movq	%rcx, 1432(%rsp)        # 8-byte Spill
	movl	%esi, 1168(%rsp)        # 4-byte Spill
	jl	.LBB18_102
	jmp	.LBB18_42
.LBB18_58:                              # %for.inc.i.i.i
                                        #   in Loop: Header=BB18_40 Depth=4
	movq	1472(%rsp), %rax        # 8-byte Reload
	cmpq	$1, %rax
	movq	1464(%rsp), %rcx        # 8-byte Reload
	movq	%rcx, 1480(%rsp)        # 8-byte Spill
	jg	.LBB18_40
.LBB18_59:                              # %mainSimpleSort.exit.i.i
                                        #   in Loop: Header=BB18_31 Depth=3
	movl	2076(%rsp), %eax
	movl	$2832, 6612(%rsp)       # imm = 0xB10
	cmpl	$0, %eax
	movl	1528(%rsp), %ecx        # 4-byte Reload
	movl	%ecx, 1164(%rsp)        # 4-byte Spill
	movl	%eax, 1168(%rsp)        # 4-byte Spill
	jl	.LBB18_102
.LBB18_60:                              # %while.cond.outer.backedge.i.i
                                        #   in Loop: Header=BB18_31 Depth=3
	movl	1164(%rsp), %eax        # 4-byte Reload
	cmpl	$0, %eax
	movl	%eax, 1564(%rsp)        # 4-byte Spill
	jg	.LBB18_31
	jmp	.LBB18_101
.LBB18_61:                              # %if.end18.i.i
                                        #   in Loop: Header=BB18_32 Depth=4
	movl	1524(%rsp), %eax        # 4-byte Reload
	movslq	%eax, %rcx
	movq	2048(%rsp), %rdx        # 8-byte Reload
	movl	(%rdx,%rcx,4), %esi
	movl	$2836, 6612(%rsp)       # imm = 0xB14
	movl	1516(%rsp), %edi        # 4-byte Reload
	addl	%edi, %esi
	movl	%esi, %esi
	movl	%esi, %ecx
	movq	2040(%rsp), %r8         # 8-byte Reload
	movb	(%r8,%rcx), %r9b
	movl	$2839, 6612(%rsp)       # imm = 0xB17
	movl	1520(%rsp), %esi        # 4-byte Reload
	movslq	%esi, %rcx
	movl	(%rdx,%rcx,4), %r10d
	movl	$2843, 6612(%rsp)       # imm = 0xB1B
	addl	%edi, %r10d
	movl	%r10d, %r10d
	movl	%r10d, %ecx
	movb	(%r8,%rcx), %r11b
	movl	$2848, 6612(%rsp)       # imm = 0xB20
	addl	%eax, %esi
	sarl	$1, %esi
	movslq	%esi, %rcx
	movl	(%rdx,%rcx,4), %esi
	movl	$2852, 6612(%rsp)       # imm = 0xB24
	addl	%edi, %esi
	movl	%esi, %esi
	movl	%esi, %ecx
	movb	(%r8,%rcx), %bl
	movl	$2886, 6612(%rsp)       # imm = 0xB46
	cmpb	%r11b, %r9b
	movb	%r9b, %bpl
	movb	%r9b, 1163(%rsp)        # 1-byte Spill
	movb	%r11b, 1162(%rsp)       # 1-byte Spill
	movb	%bl, 1161(%rsp)         # 1-byte Spill
	movb	%bpl, 1160(%rsp)        # 1-byte Spill
	ja	.LBB18_173
# %bb.172:                              # %if.end18.i.i
                                        #   in Loop: Header=BB18_32 Depth=4
	movb	1162(%rsp), %al         # 1-byte Reload
	movb	%al, 1160(%rsp)         # 1-byte Spill
.LBB18_173:                             # %if.end18.i.i
                                        #   in Loop: Header=BB18_32 Depth=4
	movb	1160(%rsp), %al         # 1-byte Reload
	movb	1163(%rsp), %cl         # 1-byte Reload
	movb	1162(%rsp), %dl         # 1-byte Reload
	cmpb	%dl, %cl
	movb	%al, 1159(%rsp)         # 1-byte Spill
	movb	%dl, 1158(%rsp)         # 1-byte Spill
	ja	.LBB18_175
# %bb.174:                              # %if.end18.i.i
                                        #   in Loop: Header=BB18_32 Depth=4
	movb	1163(%rsp), %al         # 1-byte Reload
	movb	%al, 1158(%rsp)         # 1-byte Spill
.LBB18_175:                             # %if.end18.i.i
                                        #   in Loop: Header=BB18_32 Depth=4
	movb	1158(%rsp), %al         # 1-byte Reload
	movb	1161(%rsp), %cl         # 1-byte Reload
	cmpb	%cl, %al
	movb	%al, 1157(%rsp)         # 1-byte Spill
	ja	.LBB18_177
# %bb.176:                              # %if.end18.i.i
                                        #   in Loop: Header=BB18_32 Depth=4
	movb	1161(%rsp), %al         # 1-byte Reload
	movb	%al, 1157(%rsp)         # 1-byte Spill
.LBB18_177:                             # %if.end18.i.i
                                        #   in Loop: Header=BB18_32 Depth=4
	movb	1157(%rsp), %al         # 1-byte Reload
	movb	1159(%rsp), %cl         # 1-byte Reload
	movb	1161(%rsp), %dl         # 1-byte Reload
	cmpb	%dl, %cl
	movb	%al, 1156(%rsp)         # 1-byte Spill
	ja	.LBB18_179
# %bb.178:                              # %if.end18.i.i
                                        #   in Loop: Header=BB18_32 Depth=4
	movb	1159(%rsp), %al         # 1-byte Reload
	movb	%al, 1156(%rsp)         # 1-byte Spill
.LBB18_179:                             # %if.end18.i.i
                                        #   in Loop: Header=BB18_32 Depth=4
	movb	1156(%rsp), %al         # 1-byte Reload
	movzbl	%al, %ecx
	movl	1520(%rsp), %edx        # 4-byte Reload
	movl	1524(%rsp), %esi        # 4-byte Reload
	movl	1520(%rsp), %edi        # 4-byte Reload
	movl	1524(%rsp), %r8d        # 4-byte Reload
	movl	%ecx, 1152(%rsp)        # 4-byte Spill
	movl	%edx, 1148(%rsp)        # 4-byte Spill
	movl	%esi, 1144(%rsp)        # 4-byte Spill
	movl	%edi, 1140(%rsp)        # 4-byte Spill
	movl	%r8d, 1136(%rsp)        # 4-byte Spill
.LBB18_62:                              # %while.cond34.i.i
                                        #   Parent Loop BB18_24 Depth=1
                                        #     Parent Loop BB18_25 Depth=2
                                        #       Parent Loop BB18_31 Depth=3
                                        #         Parent Loop BB18_32 Depth=4
                                        # =>        This Loop Header: Depth=5
                                        #             Child Loop BB18_64 Depth 6
                                        #               Child Loop BB18_65 Depth 7
                                        #             Child Loop BB18_74 Depth 6
                                        #               Child Loop BB18_75 Depth 7
	movl	1136(%rsp), %eax        # 4-byte Reload
	movl	1140(%rsp), %ecx        # 4-byte Reload
	movl	1144(%rsp), %edx        # 4-byte Reload
	movl	1148(%rsp), %esi        # 4-byte Reload
	cmpl	%ecx, %eax
	movl	%edx, %edi
	movl	%eax, %r8d
	movl	%eax, 1132(%rsp)        # 4-byte Spill
	movl	%ecx, 1128(%rsp)        # 4-byte Spill
	movl	%edx, 1124(%rsp)        # 4-byte Spill
	movl	%esi, 1120(%rsp)        # 4-byte Spill
	movl	%edi, 1116(%rsp)        # 4-byte Spill
	movl	%r8d, 1112(%rsp)        # 4-byte Spill
	jg	.LBB18_72
# %bb.63:                               # %if.end41.lr.ph.lr.ph.i.i
                                        #   in Loop: Header=BB18_62 Depth=5
	movl	1128(%rsp), %eax        # 4-byte Reload
	movslq	%eax, %rcx
	movl	1124(%rsp), %edx        # 4-byte Reload
	movslq	%edx, %rsi
	movl	1132(%rsp), %edi        # 4-byte Reload
	movq	%rcx, 1104(%rsp)        # 8-byte Spill
	movq	%rsi, 1096(%rsp)        # 8-byte Spill
	movl	%edi, 1092(%rsp)        # 4-byte Spill
.LBB18_64:                              # %if.end41.lr.ph.i.i
                                        #   Parent Loop BB18_24 Depth=1
                                        #     Parent Loop BB18_25 Depth=2
                                        #       Parent Loop BB18_31 Depth=3
                                        #         Parent Loop BB18_32 Depth=4
                                        #           Parent Loop BB18_62 Depth=5
                                        # =>          This Loop Header: Depth=6
                                        #               Child Loop BB18_65 Depth 7
	movl	1092(%rsp), %eax        # 4-byte Reload
	movq	1096(%rsp), %rcx        # 8-byte Reload
	movslq	%eax, %rdx
	movq	%rdx, 1080(%rsp)        # 8-byte Spill
	movq	%rcx, 1072(%rsp)        # 8-byte Spill
	movl	%eax, 1068(%rsp)        # 4-byte Spill
.LBB18_65:                              # %if.end41.i.i
                                        #   Parent Loop BB18_24 Depth=1
                                        #     Parent Loop BB18_25 Depth=2
                                        #       Parent Loop BB18_31 Depth=3
                                        #         Parent Loop BB18_32 Depth=4
                                        #           Parent Loop BB18_62 Depth=5
                                        #             Parent Loop BB18_64 Depth=6
                                        # =>            This Inner Loop Header: Depth=7
	movl	1068(%rsp), %eax        # 4-byte Reload
	movq	1080(%rsp), %rcx        # 8-byte Reload
	movq	2048(%rsp), %rdx        # 8-byte Reload
	movl	(%rdx,%rcx,4), %esi
	movl	$2890, 6612(%rsp)       # imm = 0xB4A
	movl	%esi, %edi
	movl	1516(%rsp), %r8d        # 4-byte Reload
	addl	%r8d, %edi
	movl	%edi, %edi
	movl	%edi, %r9d
	movq	2040(%rsp), %r10        # 8-byte Reload
	movb	(%r10,%r9), %r11b
	movl	$2898, 6612(%rsp)       # imm = 0xB52
	movzbl	%r11b, %edi
	movl	1152(%rsp), %ebx        # 4-byte Reload
	subl	%ebx, %edi
	cmpl	$0, %edi
	movl	%eax, 1064(%rsp)        # 4-byte Spill
	movq	%rcx, 1056(%rsp)        # 8-byte Spill
	movl	%esi, 1052(%rsp)        # 4-byte Spill
	movl	%edi, 1048(%rsp)        # 4-byte Spill
	jne	.LBB18_67
# %bb.66:                               # %if.then51.i.i
                                        #   in Loop: Header=BB18_64 Depth=6
	movq	1056(%rsp), %rax        # 8-byte Reload
	movl	%eax, %ecx
	movq	2048(%rsp), %rdx        # 8-byte Reload
	movq	1072(%rsp), %rsi        # 8-byte Reload
	movl	(%rdx,%rsi,4), %edi
	movl	$2899, 6612(%rsp)       # imm = 0xB53
	movl	%edi, (%rdx,%rax,4)
	movl	$2900, 6612(%rsp)       # imm = 0xB54
	movl	1052(%rsp), %edi        # 4-byte Reload
	movl	%edi, (%rdx,%rsi,4)
	movl	$2929, 6612(%rsp)       # imm = 0xB71
	addq	$1, %rsi
	movl	%ecx, %r8d
	addl	$1, %r8d
	movl	1128(%rsp), %r9d        # 4-byte Reload
	cmpl	%ecx, %r9d
	movq	%rsi, %r10
	movl	%r8d, %ecx
	movq	%rsi, 1040(%rsp)        # 8-byte Spill
	movl	%r8d, 1036(%rsp)        # 4-byte Spill
	movq	%r10, 1096(%rsp)        # 8-byte Spill
	movl	%ecx, 1092(%rsp)        # 4-byte Spill
	jg	.LBB18_64
	jmp	.LBB18_69
.LBB18_67:                              # %if.end62.i.i
                                        #   in Loop: Header=BB18_65 Depth=7
	movl	1048(%rsp), %eax        # 4-byte Reload
	cmpl	$0, %eax
	jg	.LBB18_70
# %bb.68:                               # %if.end66.i.i
                                        #   in Loop: Header=BB18_65 Depth=7
	movq	1056(%rsp), %rax        # 8-byte Reload
	addq	$1, %rax
	movl	1064(%rsp), %ecx        # 4-byte Reload
	addl	$1, %ecx
	movq	1056(%rsp), %rdx        # 8-byte Reload
	movq	1104(%rsp), %rsi        # 8-byte Reload
	cmpq	%rsi, %rdx
	movl	%ecx, %edi
	movl	%ecx, 1032(%rsp)        # 4-byte Spill
	movq	%rax, 1080(%rsp)        # 8-byte Spill
	movl	%edi, 1068(%rsp)        # 4-byte Spill
	jl	.LBB18_65
	jmp	.LBB18_71
.LBB18_69:                              # %while.end.loopexit87.i.i
                                        #   in Loop: Header=BB18_62 Depth=5
	movq	1040(%rsp), %rax        # 8-byte Reload
	movl	%eax, %ecx
	movl	1036(%rsp), %edx        # 4-byte Reload
	movl	%ecx, 1116(%rsp)        # 4-byte Spill
	movl	%edx, 1112(%rsp)        # 4-byte Spill
	jmp	.LBB18_72
.LBB18_70:                              # %while.end.loopexit.split.loop.exit.i.i
                                        #   in Loop: Header=BB18_62 Depth=5
	movq	1072(%rsp), %rax        # 8-byte Reload
	movl	%eax, %ecx
	movq	1056(%rsp), %rdx        # 8-byte Reload
	movl	%edx, %esi
	movl	%ecx, 1116(%rsp)        # 4-byte Spill
	movl	%esi, 1112(%rsp)        # 4-byte Spill
	jmp	.LBB18_72
.LBB18_71:                              # %while.end.loopexit.split.loop.exit181.i.i
                                        #   in Loop: Header=BB18_62 Depth=5
	movq	1072(%rsp), %rax        # 8-byte Reload
	movl	%eax, %ecx
	movl	1032(%rsp), %edx        # 4-byte Reload
	movl	%ecx, 1116(%rsp)        # 4-byte Spill
	movl	%edx, 1112(%rsp)        # 4-byte Spill
.LBB18_72:                              # %while.end.i.i
                                        #   in Loop: Header=BB18_62 Depth=5
	movl	1112(%rsp), %eax        # 4-byte Reload
	movl	1116(%rsp), %ecx        # 4-byte Reload
	movl	1128(%rsp), %edx        # 4-byte Reload
	cmpl	%edx, %eax
	movl	1120(%rsp), %esi        # 4-byte Reload
	movl	%eax, 1028(%rsp)        # 4-byte Spill
	movl	%ecx, 1024(%rsp)        # 4-byte Spill
	movl	%edx, 1020(%rsp)        # 4-byte Spill
	movl	%esi, 1016(%rsp)        # 4-byte Spill
	jg	.LBB18_82
# %bb.73:                               # %if.end73.lr.ph.lr.ph.i.i
                                        #   in Loop: Header=BB18_62 Depth=5
	movl	1028(%rsp), %eax        # 4-byte Reload
	movslq	%eax, %rcx
	movl	1120(%rsp), %edx        # 4-byte Reload
	movslq	%edx, %rsi
	movl	1128(%rsp), %edi        # 4-byte Reload
	movq	%rcx, 1008(%rsp)        # 8-byte Spill
	movq	%rsi, 1000(%rsp)        # 8-byte Spill
	movl	%edi, 996(%rsp)         # 4-byte Spill
.LBB18_74:                              # %if.end73.lr.ph.i.i
                                        #   Parent Loop BB18_24 Depth=1
                                        #     Parent Loop BB18_25 Depth=2
                                        #       Parent Loop BB18_31 Depth=3
                                        #         Parent Loop BB18_32 Depth=4
                                        #           Parent Loop BB18_62 Depth=5
                                        # =>          This Loop Header: Depth=6
                                        #               Child Loop BB18_75 Depth 7
	movl	996(%rsp), %eax         # 4-byte Reload
	movq	1000(%rsp), %rcx        # 8-byte Reload
	movslq	%eax, %rdx
	movq	%rcx, 984(%rsp)         # 8-byte Spill
	movq	%rdx, 976(%rsp)         # 8-byte Spill
.LBB18_75:                              # %if.end73.i.i
                                        #   Parent Loop BB18_24 Depth=1
                                        #     Parent Loop BB18_25 Depth=2
                                        #       Parent Loop BB18_31 Depth=3
                                        #         Parent Loop BB18_32 Depth=4
                                        #           Parent Loop BB18_62 Depth=5
                                        #             Parent Loop BB18_74 Depth=6
                                        # =>            This Inner Loop Header: Depth=7
	movq	976(%rsp), %rax         # 8-byte Reload
	movq	2048(%rsp), %rcx        # 8-byte Reload
	movl	(%rcx,%rax,4), %edx
	movl	$2933, 6612(%rsp)       # imm = 0xB75
	movl	%edx, %esi
	movl	1516(%rsp), %edi        # 4-byte Reload
	addl	%edi, %esi
	movl	%esi, %esi
	movl	%esi, %r8d
	movq	2040(%rsp), %r9         # 8-byte Reload
	movb	(%r9,%r8), %r10b
	movl	$2941, 6612(%rsp)       # imm = 0xB7D
	movzbl	%r10b, %esi
	movl	1152(%rsp), %r11d       # 4-byte Reload
	subl	%r11d, %esi
	cmpl	$0, %esi
	movq	%rax, 968(%rsp)         # 8-byte Spill
	movl	%edx, 964(%rsp)         # 4-byte Spill
	movl	%esi, 960(%rsp)         # 4-byte Spill
	jne	.LBB18_77
# %bb.76:                               # %if.then83.i.i
                                        #   in Loop: Header=BB18_74 Depth=6
	movq	968(%rsp), %rax         # 8-byte Reload
	movl	%eax, %ecx
	movq	2048(%rsp), %rdx        # 8-byte Reload
	movq	984(%rsp), %rsi         # 8-byte Reload
	movl	(%rdx,%rsi,4), %edi
	movl	$2942, 6612(%rsp)       # imm = 0xB7E
	movl	%edi, (%rdx,%rax,4)
	movl	$2943, 6612(%rsp)       # imm = 0xB7F
	movl	964(%rsp), %edi         # 4-byte Reload
	movl	%edi, (%rdx,%rsi,4)
	movl	$2953, 6612(%rsp)       # imm = 0xB89
	addq	$-1, %rsi
	movl	%ecx, %r8d
	addl	$-1, %r8d
	movl	1028(%rsp), %r9d        # 4-byte Reload
	cmpl	%ecx, %r9d
	movq	%rsi, %r10
	movl	%r8d, %ecx
	movq	%rsi, 952(%rsp)         # 8-byte Spill
	movl	%r8d, 948(%rsp)         # 4-byte Spill
	movq	%r10, 1000(%rsp)        # 8-byte Spill
	movl	%ecx, 996(%rsp)         # 4-byte Spill
	jl	.LBB18_74
	jmp	.LBB18_81
.LBB18_77:                              # %if.end95.i.i
                                        #   in Loop: Header=BB18_75 Depth=7
	movl	960(%rsp), %eax         # 4-byte Reload
	cmpl	$0, %eax
	jl	.LBB18_79
# %bb.78:                               # %if.end99.i.i
                                        #   in Loop: Header=BB18_75 Depth=7
	movq	968(%rsp), %rax         # 8-byte Reload
	addq	$-1, %rax
	movq	968(%rsp), %rcx         # 8-byte Reload
	movq	1008(%rsp), %rdx        # 8-byte Reload
	cmpq	%rdx, %rcx
	movq	%rax, %rsi
	movq	%rax, 936(%rsp)         # 8-byte Spill
	movq	%rsi, 976(%rsp)         # 8-byte Spill
	jg	.LBB18_75
	jmp	.LBB18_80
.LBB18_79:                              # %if.end105.i.i
                                        #   in Loop: Header=BB18_62 Depth=5
	movq	984(%rsp), %rax         # 8-byte Reload
	movl	%eax, %ecx
	movq	968(%rsp), %rdx         # 8-byte Reload
	movl	%edx, %esi
	movq	2048(%rsp), %rdi        # 8-byte Reload
	movq	1008(%rsp), %r8         # 8-byte Reload
	movl	(%rdi,%r8,4), %r9d
	movl	$2954, 6612(%rsp)       # imm = 0xB8A
	movl	964(%rsp), %r10d        # 4-byte Reload
	movl	%r10d, (%rdi,%r8,4)
	movl	$2955, 6612(%rsp)       # imm = 0xB8B
	movl	%r9d, (%rdi,%rdx,4)
	movl	$2967, 6612(%rsp)       # imm = 0xB97
	movl	1028(%rsp), %r9d        # 4-byte Reload
	addl	$1, %r9d
	addl	$-1, %esi
	movl	1024(%rsp), %r11d       # 4-byte Reload
	movl	%r11d, 1144(%rsp)       # 4-byte Spill
	movl	%esi, 1140(%rsp)        # 4-byte Spill
	movl	%ecx, 1148(%rsp)        # 4-byte Spill
	movl	%r9d, 1136(%rsp)        # 4-byte Spill
	jmp	.LBB18_62
.LBB18_80:                              # %while.end117.loopexit.i.i
                                        #   in Loop: Header=BB18_32 Depth=4
	movq	984(%rsp), %rax         # 8-byte Reload
	movl	%eax, %ecx
	movq	936(%rsp), %rdx         # 8-byte Reload
	movl	%edx, %esi
	movl	%ecx, 1016(%rsp)        # 4-byte Spill
	movl	%esi, 1020(%rsp)        # 4-byte Spill
	jmp	.LBB18_82
.LBB18_81:                              # %while.end117.loopexit86.i.i
                                        #   in Loop: Header=BB18_32 Depth=4
	movq	952(%rsp), %rax         # 8-byte Reload
	movl	%eax, %ecx
	movl	948(%rsp), %edx         # 4-byte Reload
	movl	%ecx, 1016(%rsp)        # 4-byte Spill
	movl	%edx, 1020(%rsp)        # 4-byte Spill
.LBB18_82:                              # %while.end117.i.i
                                        #   in Loop: Header=BB18_32 Depth=4
	movl	1020(%rsp), %eax        # 4-byte Reload
	movl	1016(%rsp), %ecx        # 4-byte Reload
	movl	1024(%rsp), %edx        # 4-byte Reload
	cmpl	%edx, %ecx
	movl	%eax, 932(%rsp)         # 4-byte Spill
	movl	%ecx, 928(%rsp)         # 4-byte Spill
	jge	.LBB18_84
# %bb.83:                               # %if.then120.i.i
                                        #   in Loop: Header=BB18_32 Depth=4
	movl	1516(%rsp), %eax        # 4-byte Reload
	addl	$1, %eax
	movq	1552(%rsp), %rcx        # 8-byte Reload
	movl	%eax, (%rcx)
	movl	$3036, 6612(%rsp)       # imm = 0xBDC
	jmp	.LBB18_32
.LBB18_84:                              # %if.end129.i.i
                                        #   in Loop: Header=BB18_31 Depth=3
	movl	1024(%rsp), %eax        # 4-byte Reload
	movl	1524(%rsp), %ecx        # 4-byte Reload
	subl	%ecx, %eax
	movl	1028(%rsp), %edx        # 4-byte Reload
	movl	1024(%rsp), %esi        # 4-byte Reload
	subl	%esi, %edx
	cmpl	%edx, %eax
	cmovll	%eax, %edx
	cmpl	$0, %edx
	movl	%edx, 924(%rsp)         # 4-byte Spill
	jle	.LBB18_92
# %bb.85:                               # %while.body140.lr.ph.i.i
                                        #   in Loop: Header=BB18_31 Depth=3
	movl	$4294967294, %eax       # imm = 0xFFFFFFFE
	movl	1524(%rsp), %ecx        # 4-byte Reload
	movslq	%ecx, %rdx
	movl	1028(%rsp), %esi        # 4-byte Reload
	movl	924(%rsp), %edi         # 4-byte Reload
	subl	%edi, %esi
	movslq	%esi, %r8
	addl	$-1, %ecx
	movl	1024(%rsp), %esi        # 4-byte Reload
	subl	%esi, %ecx
	addl	$-1, %esi
	movl	1028(%rsp), %r9d        # 4-byte Reload
	subl	%r9d, %esi
	cmpl	%esi, %ecx
	movl	%esi, %r10d
	cmovgl	%ecx, %r10d
	cmpl	$-2, %r10d
	cmovgl	%r10d, %eax
	cmpl	%esi, %ecx
	cmovgl	%ecx, %esi
	subl	%esi, %eax
	movl	%eax, %ecx
	movl	%ecx, %r11d
	addq	$1, %r11
	cmpq	$8, %r11
	movq	%rdx, %rbx
	movq	%r8, %r14
	movq	%r8, 912(%rsp)          # 8-byte Spill
	movq	%rdx, 904(%rsp)         # 8-byte Spill
	movl	%edi, 900(%rsp)         # 4-byte Spill
	movl	%eax, 896(%rsp)         # 4-byte Spill
	movq	%r11, 888(%rsp)         # 8-byte Spill
	movq	%rbx, 880(%rsp)         # 8-byte Spill
	movq	%r14, 872(%rsp)         # 8-byte Spill
	jb	.LBB18_90
# %bb.86:                               # %vector.memcheck363
                                        #   in Loop: Header=BB18_31 Depth=3
	movl	$4294967294, %eax       # imm = 0xFFFFFFFE
	movq	904(%rsp), %rcx         # 8-byte Reload
	shlq	$2, %rcx
	movq	2048(%rsp), %rdx        # 8-byte Reload
	addq	%rcx, %rdx
	movl	1524(%rsp), %esi        # 4-byte Reload
	addl	$-1, %esi
	movl	1024(%rsp), %edi        # 4-byte Reload
	subl	%edi, %esi
	addl	$-1, %edi
	movl	1028(%rsp), %r8d        # 4-byte Reload
	subl	%r8d, %edi
	cmpl	%edi, %esi
	movl	%edi, %r9d
	cmovgl	%esi, %r9d
	cmpl	$-2, %r9d
	cmovgl	%r9d, %eax
	cmpl	%edi, %esi
	cmovgl	%esi, %edi
	subl	%edi, %eax
	movl	%eax, %eax
	movl	%eax, %ecx
	movq	904(%rsp), %r10         # 8-byte Reload
	addq	%rcx, %r10
	shlq	$2, %r10
	movq	864(%rsp), %r11         # 8-byte Reload
	addq	%r10, %r11
	movq	912(%rsp), %r10         # 8-byte Reload
	shlq	$2, %r10
	movq	2048(%rsp), %rbx        # 8-byte Reload
	addq	%r10, %rbx
	movslq	%r8d, %r10
	addq	%rcx, %r10
	movl	924(%rsp), %eax         # 4-byte Reload
	movslq	%eax, %rcx
	subq	%rcx, %r10
	shlq	$2, %r10
	movq	856(%rsp), %rcx         # 8-byte Reload
	addq	%r10, %rcx
	cmpq	%rcx, %rdx
	setb	%bpl
	cmpq	%r11, %rbx
	setb	%r14b
	andb	%r14b, %bpl
	testb	$1, %bpl
	movq	904(%rsp), %rcx         # 8-byte Reload
	movq	912(%rsp), %rdx         # 8-byte Reload
	movl	%eax, 900(%rsp)         # 4-byte Spill
	movq	%rcx, 880(%rsp)         # 8-byte Spill
	movq	%rdx, 872(%rsp)         # 8-byte Spill
	jne	.LBB18_90
# %bb.87:                               # %vector.ph364
                                        #   in Loop: Header=BB18_31 Depth=3
	xorl	%eax, %eax
	movl	%eax, %ecx
	movl	896(%rsp), %eax         # 4-byte Reload
	addl	$1, %eax
	andl	$7, %eax
	movl	%eax, %edx
	movl	%edx, %esi
	movq	888(%rsp), %rdi         # 8-byte Reload
	subq	%rsi, %rdi
	movq	%rdi, %rsi
	movq	904(%rsp), %r8          # 8-byte Reload
	addq	%r8, %rsi
	movq	%rdi, %r9
	movq	912(%rsp), %r10         # 8-byte Reload
	addq	%r10, %r9
	movl	%edi, %edx
	movl	924(%rsp), %r11d        # 4-byte Reload
	subl	%edx, %r11d
	movl	%r11d, 852(%rsp)        # 4-byte Spill
	movl	%eax, 848(%rsp)         # 4-byte Spill
	movq	%rdi, 840(%rsp)         # 8-byte Spill
	movq	%rsi, 832(%rsp)         # 8-byte Spill
	movq	%r9, 824(%rsp)          # 8-byte Spill
	movq	%rcx, 816(%rsp)         # 8-byte Spill
.LBB18_88:                              # %vector.body338
                                        #   Parent Loop BB18_24 Depth=1
                                        #     Parent Loop BB18_25 Depth=2
                                        #       Parent Loop BB18_31 Depth=3
                                        # =>      This Inner Loop Header: Depth=4
	movq	816(%rsp), %rax         # 8-byte Reload
	movq	%rax, %rcx
	movq	904(%rsp), %rdx         # 8-byte Reload
	addq	%rdx, %rcx
	movq	%rax, %rsi
	movq	912(%rsp), %rdi         # 8-byte Reload
	addq	%rdi, %rsi
	movq	2048(%rsp), %r8         # 8-byte Reload
	movdqu	(%r8,%rcx,4), %xmm0
	movl	$3039, 6612(%rsp)       # imm = 0xBDF
	movdqu	16(%r8,%rcx,4), %xmm1
	movl	$3042, 6612(%rsp)       # imm = 0xBE2
	movdqu	(%r8,%rsi,4), %xmm2
	movl	$3045, 6612(%rsp)       # imm = 0xBE5
	movdqu	16(%r8,%rsi,4), %xmm3
	movl	$3047, 6612(%rsp)       # imm = 0xBE7
	movdqu	%xmm2, (%r8,%rcx,4)
	movl	$3049, 6612(%rsp)       # imm = 0xBE9
	movdqu	%xmm3, 16(%r8,%rcx,4)
	movl	$3051, 6612(%rsp)       # imm = 0xBEB
	movdqu	%xmm0, (%r8,%rsi,4)
	movl	$3053, 6612(%rsp)       # imm = 0xBED
	movdqu	%xmm1, 16(%r8,%rsi,4)
	movl	$3069, 6612(%rsp)       # imm = 0xBFD
	addq	$8, %rax
	movq	840(%rsp), %rcx         # 8-byte Reload
	cmpq	%rcx, %rax
	movq	%rax, 816(%rsp)         # 8-byte Spill
	jne	.LBB18_88
# %bb.89:                               # %middle.block339
                                        #   in Loop: Header=BB18_31 Depth=3
	movl	848(%rsp), %eax         # 4-byte Reload
	cmpl	$0, %eax
	movq	832(%rsp), %rcx         # 8-byte Reload
	movq	824(%rsp), %rdx         # 8-byte Reload
	movl	852(%rsp), %esi         # 4-byte Reload
	movq	%rcx, 880(%rsp)         # 8-byte Spill
	movq	%rdx, 872(%rsp)         # 8-byte Spill
	movl	%esi, 900(%rsp)         # 4-byte Spill
	je	.LBB18_92
.LBB18_90:                              # %while.body140.i.i.preheader
                                        #   in Loop: Header=BB18_31 Depth=3
	movl	900(%rsp), %eax         # 4-byte Reload
	movq	872(%rsp), %rcx         # 8-byte Reload
	movq	880(%rsp), %rdx         # 8-byte Reload
	movq	%rcx, 808(%rsp)         # 8-byte Spill
	movq	%rdx, 800(%rsp)         # 8-byte Spill
	movl	%eax, 796(%rsp)         # 4-byte Spill
.LBB18_91:                              # %while.body140.i.i
                                        #   Parent Loop BB18_24 Depth=1
                                        #     Parent Loop BB18_25 Depth=2
                                        #       Parent Loop BB18_31 Depth=3
                                        # =>      This Inner Loop Header: Depth=4
	movl	796(%rsp), %eax         # 4-byte Reload
	movq	808(%rsp), %rcx         # 8-byte Reload
	movq	800(%rsp), %rdx         # 8-byte Reload
	movq	2048(%rsp), %rsi        # 8-byte Reload
	movl	(%rsi,%rdx,4), %edi
	movl	$3071, 6612(%rsp)       # imm = 0xBFF
	movl	(%rsi,%rcx,4), %r8d
	movl	$3072, 6612(%rsp)       # imm = 0xC00
	movl	%r8d, (%rsi,%rdx,4)
	movl	$3073, 6612(%rsp)       # imm = 0xC01
	movl	%edi, (%rsi,%rcx,4)
	movl	$3144, 6612(%rsp)       # imm = 0xC48
	addq	$1, %rdx
	addq	$1, %rcx
	movl	%eax, %edi
	addl	$-1, %edi
	cmpl	$1, %eax
	movq	%rcx, 808(%rsp)         # 8-byte Spill
	movq	%rdx, 800(%rsp)         # 8-byte Spill
	movl	%edi, 796(%rsp)         # 4-byte Spill
	jg	.LBB18_91
.LBB18_92:                              # %while.end153.i.i
                                        #   in Loop: Header=BB18_31 Depth=3
	movl	1520(%rsp), %eax        # 4-byte Reload
	movl	928(%rsp), %ecx         # 4-byte Reload
	subl	%ecx, %eax
	movl	932(%rsp), %edx         # 4-byte Reload
	subl	%edx, %ecx
	cmpl	%ecx, %eax
	movl	%ecx, %esi
	cmovll	%eax, %esi
	cmpl	$0, %esi
	movl	%esi, 792(%rsp)         # 4-byte Spill
	movl	%ecx, 788(%rsp)         # 4-byte Spill
	jle	.LBB18_100
# %bb.93:                               # %while.body172.lr.ph.i.i
                                        #   in Loop: Header=BB18_31 Depth=3
	movl	$4294967294, %eax       # imm = 0xFFFFFFFE
	movl	1520(%rsp), %ecx        # 4-byte Reload
	movl	792(%rsp), %edx         # 4-byte Reload
	subl	%edx, %ecx
	movslq	%ecx, %rsi
	movl	1028(%rsp), %ecx        # 4-byte Reload
	movslq	%ecx, %rdi
	movl	928(%rsp), %r8d         # 4-byte Reload
	addl	$-1, %r8d
	movl	1520(%rsp), %r9d        # 4-byte Reload
	subl	%r9d, %r8d
	movl	932(%rsp), %r10d        # 4-byte Reload
	addl	$-1, %r10d
	movl	928(%rsp), %r11d        # 4-byte Reload
	subl	%r11d, %r10d
	cmpl	%r10d, %r8d
	movl	%r10d, %ebx
	cmovgl	%r8d, %ebx
	cmpl	$-2, %ebx
	cmovgl	%ebx, %eax
	cmpl	%r10d, %r8d
	cmovgl	%r8d, %r10d
	subl	%r10d, %eax
	movl	%eax, %r8d
	movl	%r8d, %r14d
	addq	$1, %r14
	cmpq	$8, %r14
	movq	%rdi, %r15
	movq	%rsi, %r12
	movl	%edx, 784(%rsp)         # 4-byte Spill
	movq	%rsi, 776(%rsp)         # 8-byte Spill
	movq	%rdi, 768(%rsp)         # 8-byte Spill
	movl	%eax, 764(%rsp)         # 4-byte Spill
	movq	%r14, 752(%rsp)         # 8-byte Spill
	movq	%r15, 744(%rsp)         # 8-byte Spill
	movq	%r12, 736(%rsp)         # 8-byte Spill
	jb	.LBB18_98
# %bb.94:                               # %vector.memcheck
                                        #   in Loop: Header=BB18_31 Depth=3
	movl	$4294967294, %eax       # imm = 0xFFFFFFFE
	movq	768(%rsp), %rcx         # 8-byte Reload
	shlq	$2, %rcx
	movq	2048(%rsp), %rdx        # 8-byte Reload
	addq	%rcx, %rdx
	movl	928(%rsp), %esi         # 4-byte Reload
	addl	$-1, %esi
	movl	1520(%rsp), %edi        # 4-byte Reload
	subl	%edi, %esi
	movl	932(%rsp), %r8d         # 4-byte Reload
	addl	$-1, %r8d
	movl	928(%rsp), %r9d         # 4-byte Reload
	subl	%r9d, %r8d
	cmpl	%r8d, %esi
	movl	%r8d, %r10d
	cmovgl	%esi, %r10d
	cmpl	$-2, %r10d
	cmovgl	%r10d, %eax
	cmpl	%r8d, %esi
	cmovgl	%esi, %r8d
	subl	%r8d, %eax
	movl	%eax, %eax
	movl	%eax, %ecx
	movq	768(%rsp), %r11         # 8-byte Reload
	addq	%rcx, %r11
	shlq	$2, %r11
	movq	728(%rsp), %rbx         # 8-byte Reload
	addq	%r11, %rbx
	movq	776(%rsp), %r11         # 8-byte Reload
	shlq	$2, %r11
	movq	720(%rsp), %r14         # 8-byte Reload
	addq	%r11, %r14
	movslq	%edi, %r11
	addq	%rcx, %r11
	movl	792(%rsp), %eax         # 4-byte Reload
	movslq	%eax, %rcx
	subq	%rcx, %r11
	shlq	$2, %r11
	movq	712(%rsp), %rcx         # 8-byte Reload
	addq	%r11, %rcx
	cmpq	%rcx, %rdx
	setb	%bpl
	cmpq	%rbx, %r14
	setb	%r15b
	andb	%r15b, %bpl
	testb	$1, %bpl
	movq	768(%rsp), %rcx         # 8-byte Reload
	movq	776(%rsp), %rdx         # 8-byte Reload
	movl	%eax, 784(%rsp)         # 4-byte Spill
	movq	%rcx, 744(%rsp)         # 8-byte Spill
	movq	%rdx, 736(%rsp)         # 8-byte Spill
	jne	.LBB18_98
# %bb.95:                               # %vector.ph315
                                        #   in Loop: Header=BB18_31 Depth=3
	xorl	%eax, %eax
	movl	%eax, %ecx
	movl	764(%rsp), %eax         # 4-byte Reload
	addl	$1, %eax
	andl	$7, %eax
	movl	%eax, %edx
	movl	%edx, %esi
	movq	752(%rsp), %rdi         # 8-byte Reload
	subq	%rsi, %rdi
	movq	%rdi, %rsi
	movq	768(%rsp), %r8          # 8-byte Reload
	addq	%r8, %rsi
	movq	%rdi, %r9
	movq	776(%rsp), %r10         # 8-byte Reload
	addq	%r10, %r9
	movl	%edi, %edx
	movl	792(%rsp), %r11d        # 4-byte Reload
	subl	%edx, %r11d
	movl	%r11d, 708(%rsp)        # 4-byte Spill
	movl	%eax, 704(%rsp)         # 4-byte Spill
	movq	%rdi, 696(%rsp)         # 8-byte Spill
	movq	%rsi, 688(%rsp)         # 8-byte Spill
	movq	%r9, 680(%rsp)          # 8-byte Spill
	movq	%rcx, 672(%rsp)         # 8-byte Spill
.LBB18_96:                              # %vector.body296
                                        #   Parent Loop BB18_24 Depth=1
                                        #     Parent Loop BB18_25 Depth=2
                                        #       Parent Loop BB18_31 Depth=3
                                        # =>      This Inner Loop Header: Depth=4
	movq	672(%rsp), %rax         # 8-byte Reload
	movq	%rax, %rcx
	movq	768(%rsp), %rdx         # 8-byte Reload
	addq	%rdx, %rcx
	movq	%rax, %rsi
	movq	776(%rsp), %rdi         # 8-byte Reload
	addq	%rdi, %rsi
	movq	2048(%rsp), %r8         # 8-byte Reload
	movdqu	(%r8,%rcx,4), %xmm0
	movl	$3147, 6612(%rsp)       # imm = 0xC4B
	movdqu	16(%r8,%rcx,4), %xmm1
	movl	$3150, 6612(%rsp)       # imm = 0xC4E
	movdqu	4(%r8,%rsi,4), %xmm2
	movl	$3153, 6612(%rsp)       # imm = 0xC51
	movdqu	20(%r8,%rsi,4), %xmm3
	movl	$3155, 6612(%rsp)       # imm = 0xC53
	movdqu	%xmm2, (%r8,%rcx,4)
	movl	$3157, 6612(%rsp)       # imm = 0xC55
	movdqu	%xmm3, 16(%r8,%rcx,4)
	movl	$3159, 6612(%rsp)       # imm = 0xC57
	movdqu	%xmm0, 4(%r8,%rsi,4)
	movl	$3161, 6612(%rsp)       # imm = 0xC59
	movdqu	%xmm1, 20(%r8,%rsi,4)
	movl	$3177, 6612(%rsp)       # imm = 0xC69
	addq	$8, %rax
	movq	696(%rsp), %rcx         # 8-byte Reload
	cmpq	%rcx, %rax
	movq	%rax, 672(%rsp)         # 8-byte Spill
	jne	.LBB18_96
# %bb.97:                               # %middle.block297
                                        #   in Loop: Header=BB18_31 Depth=3
	movl	704(%rsp), %eax         # 4-byte Reload
	cmpl	$0, %eax
	movq	688(%rsp), %rcx         # 8-byte Reload
	movq	680(%rsp), %rdx         # 8-byte Reload
	movl	708(%rsp), %esi         # 4-byte Reload
	movq	%rcx, 744(%rsp)         # 8-byte Spill
	movq	%rdx, 736(%rsp)         # 8-byte Spill
	movl	%esi, 784(%rsp)         # 4-byte Spill
	je	.LBB18_100
.LBB18_98:                              # %while.body172.i.i.preheader
                                        #   in Loop: Header=BB18_31 Depth=3
	movl	784(%rsp), %eax         # 4-byte Reload
	movq	736(%rsp), %rcx         # 8-byte Reload
	movq	744(%rsp), %rdx         # 8-byte Reload
	movq	%rcx, 664(%rsp)         # 8-byte Spill
	movq	%rdx, 656(%rsp)         # 8-byte Spill
	movl	%eax, 652(%rsp)         # 4-byte Spill
.LBB18_99:                              # %while.body172.i.i
                                        #   Parent Loop BB18_24 Depth=1
                                        #     Parent Loop BB18_25 Depth=2
                                        #       Parent Loop BB18_31 Depth=3
                                        # =>      This Inner Loop Header: Depth=4
	movl	652(%rsp), %eax         # 4-byte Reload
	movq	664(%rsp), %rcx         # 8-byte Reload
	movq	656(%rsp), %rdx         # 8-byte Reload
	movq	%rcx, %rsi
	addq	$1, %rsi
	movq	2048(%rsp), %rdi        # 8-byte Reload
	movl	(%rdi,%rdx,4), %r8d
	movl	$3179, 6612(%rsp)       # imm = 0xC6B
	movl	4(%rdi,%rcx,4), %r9d
	movl	$3180, 6612(%rsp)       # imm = 0xC6C
	movl	%r9d, (%rdi,%rdx,4)
	movl	$3181, 6612(%rsp)       # imm = 0xC6D
	movl	%r8d, 4(%rdi,%rcx,4)
	movl	$3215, 6612(%rsp)       # imm = 0xC8F
	addq	$1, %rdx
	movl	%eax, %r8d
	addl	$-1, %r8d
	cmpl	$1, %eax
	movq	%rsi, 664(%rsp)         # 8-byte Spill
	movq	%rdx, 656(%rsp)         # 8-byte Spill
	movl	%r8d, 652(%rsp)         # 4-byte Spill
	jg	.LBB18_99
.LBB18_100:                             # %while.end185.i.i
                                        #   in Loop: Header=BB18_31 Depth=3
	movl	1524(%rsp), %eax        # 4-byte Reload
	movl	1024(%rsp), %ecx        # 4-byte Reload
	subl	%ecx, %eax
	movl	1028(%rsp), %edx        # 4-byte Reload
	addl	%edx, %eax
	movl	%eax, %esi
	addl	$-1, %esi
	movl	1520(%rsp), %edi        # 4-byte Reload
	movl	788(%rsp), %r8d         # 4-byte Reload
	subl	%r8d, %edi
	movl	%edi, %r9d
	addl	$1, %r9d
	movl	1516(%rsp), %r10d       # 4-byte Reload
	addl	$1, %r10d
	movl	%esi, %r11d
	movl	1524(%rsp), %ebx        # 4-byte Reload
	subl	%ebx, %r11d
	movl	1520(%rsp), %ebp        # 4-byte Reload
	subl	%r9d, %ebp
	cmpl	%ebp, %r11d
	movl	%r9d, %r14d
	cmovll	%ebx, %r14d
	cmpl	%ebp, %r11d
	cmovll	%r9d, %ebx
	cmpl	%ebp, %r11d
	movl	1520(%rsp), %r9d        # 4-byte Reload
	cmovll	%esi, %r9d
	cmpl	%ebp, %r11d
	movl	1520(%rsp), %r11d       # 4-byte Reload
	cmovll	%r11d, %esi
	movl	%r9d, %ebp
	subl	%r14d, %ebp
	movl	%edi, %r15d
	subl	%eax, %r15d
	cmpl	%r15d, %ebp
	movl	%r14d, %r12d
	cmovll	%eax, %r12d
	cmpl	%r15d, %ebp
	movl	%edi, %r13d
	cmovll	%r9d, %r13d
	cmpl	%r15d, %ebp
	cmovll	%edi, %r9d
	cmpl	%r15d, %ebp
	movl	%r10d, %edi
	movl	1516(%rsp), %ecx        # 4-byte Reload
	cmovll	%ecx, %edi
	cmpl	%r15d, %ebp
	cmovll	%r10d, %ecx
	cmpl	%r15d, %ebp
	cmovll	%r14d, %eax
	movl	%esi, %r10d
	subl	%ebx, %r10d
	movl	%r9d, %ebp
	subl	%r12d, %ebp
	cmpl	%ebp, %r10d
	movl	%r12d, %r14d
	cmovll	%ebx, %r14d
	cmpl	%ebp, %r10d
	cmovll	%r12d, %ebx
	cmpl	%ebp, %r10d
	movl	%r9d, %r15d
	cmovll	%esi, %r15d
	cmpl	%ebp, %r10d
	cmovll	%r9d, %esi
	cmpl	%ebp, %r10d
	movl	%ecx, %r9d
	movl	1516(%rsp), %r12d       # 4-byte Reload
	cmovll	%r12d, %r9d
	cmpl	%ebp, %r10d
	cmovll	%ecx, %r12d
	movq	1536(%rsp), %r8         # 8-byte Reload
	movl	%ebx, (%r8)
	movl	$3216, 6612(%rsp)       # imm = 0xC90
	movq	1544(%rsp), %r8         # 8-byte Reload
	movl	%esi, (%r8)
	movl	$3217, 6612(%rsp)       # imm = 0xC91
	movq	1552(%rsp), %rsi        # 8-byte Reload
	movl	%r12d, (%rsi)
	movl	$3220, 6612(%rsp)       # imm = 0xC94
	movl	1560(%rsp), %ecx        # 4-byte Reload
	movslq	%ecx, %rsi
	movl	%r14d, 6208(%rsp,%rsi,4)
	movl	$3222, 6612(%rsp)       # imm = 0xC96
	movl	%r15d, 5808(%rsp,%rsi,4)
	movl	$3224, 6612(%rsp)       # imm = 0xC98
	movl	%r9d, 5408(%rsp,%rsi,4)
	movl	$3228, 6612(%rsp)       # imm = 0xC9C
	addl	$1, %ecx
	movslq	%ecx, %rsi
	movl	%eax, 6208(%rsp,%rsi,4)
	movl	$3230, 6612(%rsp)       # imm = 0xC9E
	movl	%r13d, 5808(%rsp,%rsi,4)
	movl	$3232, 6612(%rsp)       # imm = 0xCA0
	movl	%edi, 5408(%rsp,%rsi,4)
	movl	$3234, 6612(%rsp)       # imm = 0xCA2
	movl	1560(%rsp), %eax        # 4-byte Reload
	addl	$2, %eax
	movl	%eax, 1164(%rsp)        # 4-byte Spill
	jmp	.LBB18_60
.LBB18_101:                             # %mainQSort3.exitthread-pre-split.i
                                        #   in Loop: Header=BB18_25 Depth=2
	movl	2076(%rsp), %eax
	movl	$3245, 6612(%rsp)       # imm = 0xCAD
	movl	%eax, 1168(%rsp)        # 4-byte Spill
.LBB18_102:                             # %mainQSort3.exit.i
                                        #   in Loop: Header=BB18_25 Depth=2
	movl	1168(%rsp), %eax        # 4-byte Reload
	cmpl	$0, %eax
	jl	.LBB18_138
# %bb.103:                              # %mainQSort3.exit.if.end322_crit_edge.i
                                        #   in Loop: Header=BB18_25 Depth=2
	movl	1648(%rsp), %eax        # 4-byte Reload
	addl	$1, %eax
	movl	1600(%rsp), %ecx        # 4-byte Reload
	subl	%ecx, %eax
	movl	1596(%rsp), %edx        # 4-byte Reload
	addl	%edx, %eax
	movq	1616(%rsp), %rsi        # 8-byte Reload
	movl	(%rsi), %edi
	movl	$3250, 6612(%rsp)       # imm = 0xCB2
	movl	%edi, 1608(%rsp)        # 4-byte Spill
	movl	%eax, 1604(%rsp)        # 4-byte Spill
.LBB18_104:                             # %if.end322.i
                                        #   in Loop: Header=BB18_25 Depth=2
	movl	1604(%rsp), %eax        # 4-byte Reload
	movl	1608(%rsp), %ecx        # 4-byte Reload
	orl	$2097152, %ecx          # imm = 0x200000
	movq	1616(%rsp), %rdx        # 8-byte Reload
	movl	%ecx, (%rdx)
	movl	$3256, 6612(%rsp)       # imm = 0xCB8
	movl	%eax, 1636(%rsp)        # 4-byte Spill
.LBB18_105:                             # %for.inc327.i
                                        #   in Loop: Header=BB18_25 Depth=2
	movl	1636(%rsp), %eax        # 4-byte Reload
	movq	1640(%rsp), %rcx        # 8-byte Reload
	addq	$1, %rcx
	cmpq	$256, %rcx              # imm = 0x100
	movl	%eax, %edx
	movl	%eax, 648(%rsp)         # 4-byte Spill
	movq	%rcx, 1688(%rsp)        # 8-byte Spill
	movl	%edx, 1652(%rsp)        # 4-byte Spill
	jb	.LBB18_25
# %bb.106:                              # %for.end329.i
                                        #   in Loop: Header=BB18_24 Depth=1
	leaq	4128(%rsp), %rax
	movl	1668(%rsp), %ecx        # 4-byte Reload
	movslq	%ecx, %rdx
	addq	%rdx, %rax
	movb	4128(%rsp,%rdx), %sil
	movl	$3268, 6612(%rsp)       # imm = 0xCC4
	cmpb	$0, %sil
	movq	%rdx, 640(%rsp)         # 8-byte Spill
	movq	%rax, 632(%rsp)         # 8-byte Spill
	je	.LBB18_108
# %bb.107:                              # %if.then333.i
                                        #   in Loop: Header=BB18_24 Depth=1
	movl	$1006, %edi             # imm = 0x3EE
	callq	BZ2_bz__AssertH__fail
.LBB18_108:                             # %for.body338.i.preheader
                                        #   in Loop: Header=BB18_24 Depth=1
	xorl	%eax, %eax
	movl	%eax, %ecx
	movq	%rcx, 624(%rsp)         # 8-byte Spill
	jmp	.LBB18_109
.LBB18_109:                             # %for.body338.i
                                        #   Parent Loop BB18_24 Depth=1
                                        # =>  This Inner Loop Header: Depth=2
	movq	624(%rsp), %rax         # 8-byte Reload
	movq	%rax, %rcx
	shlq	$8, %rcx
	movq	640(%rsp), %rdx         # 8-byte Reload
	addq	%rdx, %rcx
	movq	2032(%rsp), %rsi        # 8-byte Reload
	movl	(%rsi,%rcx,4), %edi
	movl	$3271, 6612(%rsp)       # imm = 0xCC7
	andl	$-2097153, %edi         # imm = 0xFFDFFFFF
	movl	%edi, 3104(%rsp,%rax,4)
	movl	$3274, 6612(%rsp)       # imm = 0xCCA
	movl	4(%rsi,%rcx,4), %edi
	movl	$3278, 6612(%rsp)       # imm = 0xCCE
	andl	$-2097153, %edi         # imm = 0xFFDFFFFF
	addl	$-1, %edi
	movl	%edi, 2080(%rsp,%rax,4)
	movl	$3283, 6612(%rsp)       # imm = 0xCD3
	movq	%rax, %rcx
	orq	$1, %rcx
	movq	%rcx, %r8
	shlq	$8, %r8
	addq	%rdx, %r8
	movl	(%rsi,%r8,4), %edi
	movl	$3286, 6612(%rsp)       # imm = 0xCD6
	andl	$-2097153, %edi         # imm = 0xFFDFFFFF
	movl	%edi, 3104(%rsp,%rcx,4)
	movl	$3289, 6612(%rsp)       # imm = 0xCD9
	movl	4(%rsi,%r8,4), %edi
	movl	$3293, 6612(%rsp)       # imm = 0xCDD
	andl	$-2097153, %edi         # imm = 0xFFDFFFFF
	addl	$-1, %edi
	movl	%edi, 2080(%rsp,%rcx,4)
	movl	$3297, 6612(%rsp)       # imm = 0xCE1
	addq	$2, %rax
	cmpq	$256, %rax              # imm = 0x100
	movq	%rax, 624(%rsp)         # 8-byte Spill
	jne	.LBB18_109
# %bb.110:                              # %for.end357.i
                                        #   in Loop: Header=BB18_24 Depth=1
	leaq	3104(%rsp), %rax
	movq	1656(%rsp), %rcx        # 8-byte Reload
	shlq	$2, %rcx
	movq	2032(%rsp), %rdx        # 8-byte Reload
	addq	%rcx, %rdx
	movq	2032(%rsp), %rcx        # 8-byte Reload
	movq	1656(%rsp), %rsi        # 8-byte Reload
	movl	(%rcx,%rsi,4), %edi
	movl	$3300, 6612(%rsp)       # imm = 0xCE4
	andl	$-2097153, %edi         # imm = 0xFFDFFFFF
	movq	640(%rsp), %r8          # 8-byte Reload
	shlq	$2, %r8
	addq	%r8, %rax
	movq	640(%rsp), %r8          # 8-byte Reload
	movl	3104(%rsp,%r8,4), %r9d
	movl	$3310, 6612(%rsp)       # imm = 0xCEE
	cmpl	%r9d, %edi
	movl	%r9d, %r10d
	movq	%rax, 616(%rsp)         # 8-byte Spill
	movq	%rdx, 608(%rsp)         # 8-byte Spill
	movl	%edi, 604(%rsp)         # 4-byte Spill
	movl	%r9d, 600(%rsp)         # 4-byte Spill
	movl	%r10d, 596(%rsp)        # 4-byte Spill
	jge	.LBB18_115
# %bb.111:                              # %for.body367.lr.ph.i
                                        #   in Loop: Header=BB18_24 Depth=1
	movl	604(%rsp), %eax         # 4-byte Reload
	movslq	%eax, %rcx
	movl	600(%rsp), %edx         # 4-byte Reload
	movl	%edx, 592(%rsp)         # 4-byte Spill
	movq	%rcx, 584(%rsp)         # 8-byte Spill
.LBB18_112:                             # %for.body367.i
                                        #   Parent Loop BB18_24 Depth=1
                                        # =>  This Inner Loop Header: Depth=2
	movq	584(%rsp), %rax         # 8-byte Reload
	movl	592(%rsp), %ecx         # 4-byte Reload
	xorl	%edx, %edx
	movq	2048(%rsp), %rsi        # 8-byte Reload
	movl	(%rsi,%rax,4), %edi
	movl	$3317, 6612(%rsp)       # imm = 0xCF5
	addl	$-1, %edi
	cmpl	$0, %edi
	movl	2020(%rsp), %r8d        # 4-byte Reload
	cmovll	%r8d, %edx
	addl	%edi, %edx
	movslq	%edx, %r9
	movq	2040(%rsp), %r10        # 8-byte Reload
	movb	(%r10,%r9), %r11b
	movl	$3320, 6612(%rsp)       # imm = 0xCF8
	movzbl	%r11b, %edi
	movl	%edi, %r9d
	movb	4128(%rsp,%r9), %r11b
	movl	$3324, 6612(%rsp)       # imm = 0xCFC
	cmpb	$0, %r11b
	movq	%rax, 576(%rsp)         # 8-byte Spill
	movq	%r9, 568(%rsp)          # 8-byte Spill
	movl	%edx, 564(%rsp)         # 4-byte Spill
	movl	%ecx, 560(%rsp)         # 4-byte Spill
	jne	.LBB18_114
# %bb.113:                              # %if.then381.i
                                        #   in Loop: Header=BB18_112 Depth=2
	movq	568(%rsp), %rax         # 8-byte Reload
	movl	3104(%rsp,%rax,4), %ecx
	movl	$3326, 6612(%rsp)       # imm = 0xCFE
	movl	%ecx, %edx
	addl	$1, %edx
	movl	%edx, 3104(%rsp,%rax,4)
	movl	$3329, 6612(%rsp)       # imm = 0xD01
	movslq	%ecx, %rsi
	movq	2048(%rsp), %rdi        # 8-byte Reload
	movl	564(%rsp), %ecx         # 4-byte Reload
	movl	%ecx, (%rdi,%rsi,4)
	movl	$3330, 6612(%rsp)       # imm = 0xD02
	movq	616(%rsp), %rsi         # 8-byte Reload
	movl	(%rsi), %edx
	movl	$3339, 6612(%rsp)       # imm = 0xD0B
	movl	%edx, 560(%rsp)         # 4-byte Spill
.LBB18_114:                             # %for.inc388.i
                                        #   in Loop: Header=BB18_112 Depth=2
	movl	560(%rsp), %eax         # 4-byte Reload
	movq	576(%rsp), %rcx         # 8-byte Reload
	addq	$1, %rcx
	movslq	%eax, %rdx
	cmpq	%rdx, %rcx
	movl	%eax, %esi
	movq	%rcx, 584(%rsp)         # 8-byte Spill
	movl	%esi, 592(%rsp)         # 4-byte Spill
	movl	%eax, 596(%rsp)         # 4-byte Spill
	jl	.LBB18_112
.LBB18_115:                             # %for.end390.i
                                        #   in Loop: Header=BB18_24 Depth=1
	movl	596(%rsp), %eax         # 4-byte Reload
	leaq	2080(%rsp), %rcx
	movl	1664(%rsp), %edx        # 4-byte Reload
	addl	$256, %edx              # imm = 0x100
	movslq	%edx, %rsi
	movq	%rsi, %rdi
	shlq	$2, %rdi
	movq	2032(%rsp), %r8         # 8-byte Reload
	addq	%rdi, %r8
	movq	2032(%rsp), %rdi        # 8-byte Reload
	movl	(%rdi,%rsi,4), %edx
	movl	$3343, 6612(%rsp)       # imm = 0xD0F
	andl	$-2097153, %edx         # imm = 0xFFDFFFFF
	addl	$-1, %edx
	movq	640(%rsp), %rsi         # 8-byte Reload
	shlq	$2, %rsi
	addq	%rsi, %rcx
	movq	640(%rsp), %rsi         # 8-byte Reload
	movl	2080(%rsp,%rsi,4), %r9d
	movl	$3353, 6612(%rsp)       # imm = 0xD19
	cmpl	%r9d, %edx
	movl	%r9d, %r10d
	movl	%eax, 556(%rsp)         # 4-byte Spill
	movq	%rcx, 544(%rsp)         # 8-byte Spill
	movq	%r8, 536(%rsp)          # 8-byte Spill
	movl	%edx, 532(%rsp)         # 4-byte Spill
	movl	%r9d, 528(%rsp)         # 4-byte Spill
	movl	%r10d, 524(%rsp)        # 4-byte Spill
	jle	.LBB18_120
# %bb.116:                              # %for.body402.i.preheader
                                        #   in Loop: Header=BB18_24 Depth=1
	movl	528(%rsp), %eax         # 4-byte Reload
	movl	532(%rsp), %ecx         # 4-byte Reload
	movl	%eax, 520(%rsp)         # 4-byte Spill
	movl	%ecx, 516(%rsp)         # 4-byte Spill
	jmp	.LBB18_117
.LBB18_117:                             # %for.body402.i
                                        #   Parent Loop BB18_24 Depth=1
                                        # =>  This Inner Loop Header: Depth=2
	movl	516(%rsp), %eax         # 4-byte Reload
	movl	520(%rsp), %ecx         # 4-byte Reload
	xorl	%edx, %edx
	movslq	%eax, %rsi
	movq	2048(%rsp), %rdi        # 8-byte Reload
	movl	(%rdi,%rsi,4), %r8d
	movl	$3360, 6612(%rsp)       # imm = 0xD20
	addl	$-1, %r8d
	cmpl	$0, %r8d
	movl	2020(%rsp), %r9d        # 4-byte Reload
	cmovll	%r9d, %edx
	addl	%r8d, %edx
	movslq	%edx, %rsi
	movq	2040(%rsp), %r10        # 8-byte Reload
	movb	(%r10,%rsi), %r11b
	movl	$3363, 6612(%rsp)       # imm = 0xD23
	movzbl	%r11b, %r8d
	movl	%r8d, %esi
	movb	4128(%rsp,%rsi), %r11b
	movl	$3367, 6612(%rsp)       # imm = 0xD27
	cmpb	$0, %r11b
	movl	%eax, 512(%rsp)         # 4-byte Spill
	movq	%rsi, 504(%rsp)         # 8-byte Spill
	movl	%edx, 500(%rsp)         # 4-byte Spill
	movl	%ecx, 496(%rsp)         # 4-byte Spill
	jne	.LBB18_119
# %bb.118:                              # %if.then416.i
                                        #   in Loop: Header=BB18_117 Depth=2
	movq	504(%rsp), %rax         # 8-byte Reload
	movl	2080(%rsp,%rax,4), %ecx
	movl	$3369, 6612(%rsp)       # imm = 0xD29
	movl	%ecx, %edx
	addl	$-1, %edx
	movl	%edx, 2080(%rsp,%rax,4)
	movl	$3372, 6612(%rsp)       # imm = 0xD2C
	movslq	%ecx, %rsi
	movq	2048(%rsp), %rdi        # 8-byte Reload
	movl	500(%rsp), %ecx         # 4-byte Reload
	movl	%ecx, (%rdi,%rsi,4)
	movl	$3373, 6612(%rsp)       # imm = 0xD2D
	movq	544(%rsp), %rsi         # 8-byte Reload
	movl	(%rsi), %edx
	movl	$3394, 6612(%rsp)       # imm = 0xD42
	movl	%edx, 496(%rsp)         # 4-byte Spill
.LBB18_119:                             # %for.inc423.i
                                        #   in Loop: Header=BB18_117 Depth=2
	movl	496(%rsp), %eax         # 4-byte Reload
	movl	512(%rsp), %ecx         # 4-byte Reload
	addl	$-1, %ecx
	cmpl	%eax, %ecx
	movl	%eax, %edx
	movl	%ecx, 516(%rsp)         # 4-byte Spill
	movl	%edx, 520(%rsp)         # 4-byte Spill
	movl	%eax, 524(%rsp)         # 4-byte Spill
	jg	.LBB18_117
.LBB18_120:                             # %for.end425.i
                                        #   in Loop: Header=BB18_24 Depth=1
	movl	524(%rsp), %eax         # 4-byte Reload
	movl	556(%rsp), %ecx         # 4-byte Reload
	addl	$-1, %ecx
	cmpl	%eax, %ecx
	movl	%eax, 492(%rsp)         # 4-byte Spill
	je	.LBB18_123
# %bb.121:                              # %lor.lhs.false.i
                                        #   in Loop: Header=BB18_24 Depth=1
	movl	556(%rsp), %eax         # 4-byte Reload
	cmpl	$0, %eax
	sete	%cl
	movl	492(%rsp), %edx         # 4-byte Reload
	movl	1900(%rsp), %esi        # 4-byte Reload
	cmpl	%esi, %edx
	sete	%dil
	andb	%dil, %cl
	testb	$1, %cl
	jne	.LBB18_123
# %bb.122:                              # %if.then442.i
                                        #   in Loop: Header=BB18_24 Depth=1
	movl	$1007, %edi             # imm = 0x3EF
	callq	BZ2_bz__AssertH__fail
.LBB18_123:                             # %for.body447.i.preheader
                                        #   in Loop: Header=BB18_24 Depth=1
	xorl	%eax, %eax
	movl	%eax, %ecx
	movq	%rcx, 480(%rsp)         # 8-byte Spill
	jmp	.LBB18_124
.LBB18_124:                             # %for.body447.i
                                        #   Parent Loop BB18_24 Depth=1
                                        # =>  This Inner Loop Header: Depth=2
	movq	480(%rsp), %rax         # 8-byte Reload
	movq	%rax, %rcx
	shlq	$8, %rcx
	movq	640(%rsp), %rdx         # 8-byte Reload
	addq	%rdx, %rcx
	movq	2032(%rsp), %rsi        # 8-byte Reload
	movl	(%rsi,%rcx,4), %edi
	movl	$3396, 6612(%rsp)       # imm = 0xD44
	orl	$2097152, %edi          # imm = 0x200000
	movl	%edi, (%rsi,%rcx,4)
	movl	$3401, 6612(%rsp)       # imm = 0xD49
	movq	%rax, %rcx
	shlq	$8, %rcx
	orq	$256, %rcx              # imm = 0x100
	addq	%rdx, %rcx
	movl	(%rsi,%rcx,4), %edi
	movl	$3403, 6612(%rsp)       # imm = 0xD4B
	orl	$2097152, %edi          # imm = 0x200000
	movl	%edi, (%rsi,%rcx,4)
	movl	$3406, 6612(%rsp)       # imm = 0xD4E
	addq	$2, %rax
	cmpq	$256, %rax              # imm = 0x100
	movq	%rax, 480(%rsp)         # 8-byte Spill
	jne	.LBB18_124
# %bb.125:                              # %for.end455.i
                                        #   in Loop: Header=BB18_24 Depth=1
	movq	632(%rsp), %rax         # 8-byte Reload
	movb	$1, (%rax)
	movl	$3410, 6612(%rsp)       # imm = 0xD52
	movq	1680(%rsp), %rcx        # 8-byte Reload
	cmpq	$255, %rcx
	jae	.LBB18_135
# %bb.126:                              # %if.then460.i
                                        #   in Loop: Header=BB18_24 Depth=1
	xorl	%eax, %eax
	movq	608(%rsp), %rcx         # 8-byte Reload
	movl	(%rcx), %edx
	movl	$3412, 6612(%rsp)       # imm = 0xD54
	andl	$-2097153, %edx         # imm = 0xFFDFFFFF
	movq	536(%rsp), %rsi         # 8-byte Reload
	movl	(%rsi), %edi
	movl	$3431, 6612(%rsp)       # imm = 0xD67
	andl	$-2097153, %edi         # imm = 0xFFDFFFFF
	subl	%edx, %edi
	movl	%edi, 476(%rsp)         # 4-byte Spill
	movl	%edx, 472(%rsp)         # 4-byte Spill
	movl	%eax, 468(%rsp)         # 4-byte Spill
.LBB18_127:                             # %while.cond471.i
                                        #   Parent Loop BB18_24 Depth=1
                                        # =>  This Inner Loop Header: Depth=2
	movl	468(%rsp), %eax         # 4-byte Reload
	movl	%eax, %ecx
                                        # kill: def %cl killed %ecx
	movl	476(%rsp), %edx         # 4-byte Reload
	sarl	%cl, %edx
	movl	%eax, %esi
	addl	$1, %esi
	cmpl	$65534, %edx            # imm = 0xFFFE
	movl	%eax, 464(%rsp)         # 4-byte Spill
	movl	%esi, 468(%rsp)         # 4-byte Spill
	jg	.LBB18_127
# %bb.128:                              # %while.end477.i
                                        #   in Loop: Header=BB18_24 Depth=1
	movl	476(%rsp), %eax         # 4-byte Reload
	addl	$-1, %eax
	movl	476(%rsp), %ecx         # 4-byte Reload
	cmpl	$0, %ecx
	movl	%eax, 460(%rsp)         # 4-byte Spill
	jle	.LBB18_133
# %bb.129:                              # %for.body482.lr.ph.i
                                        #   in Loop: Header=BB18_24 Depth=1
	movl	476(%rsp), %eax         # 4-byte Reload
	movslq	%eax, %rcx
	movl	472(%rsp), %edx         # 4-byte Reload
	movslq	%edx, %rsi
	movq	%rsi, 448(%rsp)         # 8-byte Spill
	movq	%rcx, 440(%rsp)         # 8-byte Spill
.LBB18_130:                             # %for.body482.i
                                        #   Parent Loop BB18_24 Depth=1
                                        # =>  This Inner Loop Header: Depth=2
	movq	440(%rsp), %rax         # 8-byte Reload
	movq	%rax, %rcx
	addq	$-1, %rcx
	movq	%rcx, %rdx
	movq	448(%rsp), %rsi         # 8-byte Reload
	addq	%rsi, %rdx
	movq	2048(%rsp), %rdi        # 8-byte Reload
	movl	(%rdi,%rdx,4), %r8d
	movl	$3437, 6612(%rsp)       # imm = 0xD6D
	movl	%ecx, %r9d
	movl	464(%rsp), %r10d        # 4-byte Reload
	movq	%rcx, 432(%rsp)         # 8-byte Spill
	movl	%r10d, %ecx
                                        # kill: def %cl killed %ecx
	shrl	%cl, %r9d
	movw	%r9w, %r11w
	movslq	%r8d, %rdx
	movq	1976(%rsp), %rbx        # 8-byte Reload
	movw	%r11w, (%rbx,%rdx,2)
	movl	$3443, 6612(%rsp)       # imm = 0xD73
	cmpl	$34, %r8d
	movq	%rax, 424(%rsp)         # 8-byte Spill
	movl	%r8d, 420(%rsp)         # 4-byte Spill
	movw	%r11w, 418(%rsp)        # 2-byte Spill
	jge	.LBB18_132
# %bb.131:                              # %if.then492.i
                                        #   in Loop: Header=BB18_130 Depth=2
	movl	420(%rsp), %eax         # 4-byte Reload
	movl	2020(%rsp), %ecx        # 4-byte Reload
	addl	%ecx, %eax
	movslq	%eax, %rdx
	movq	1976(%rsp), %rsi        # 8-byte Reload
	movw	418(%rsp), %di          # 2-byte Reload
	movw	%di, (%rsi,%rdx,2)
	movl	$3456, 6612(%rsp)       # imm = 0xD80
.LBB18_132:                             # %if.end496.i
                                        #   in Loop: Header=BB18_130 Depth=2
	movq	424(%rsp), %rax         # 8-byte Reload
	cmpq	$1, %rax
	movq	432(%rsp), %rcx         # 8-byte Reload
	movq	%rcx, 440(%rsp)         # 8-byte Spill
	jg	.LBB18_130
.LBB18_133:                             # %for.end499.i
                                        #   in Loop: Header=BB18_24 Depth=1
	movl	464(%rsp), %ecx         # 4-byte Reload
                                        # kill: def %cl killed %ecx
	movl	460(%rsp), %eax         # 4-byte Reload
	sarl	%cl, %eax
	cmpl	$65536, %eax            # imm = 0x10000
	jl	.LBB18_135
# %bb.134:                              # %if.then504.i
                                        #   in Loop: Header=BB18_24 Depth=1
	movl	$1002, %edi             # imm = 0x3EA
	callq	BZ2_bz__AssertH__fail
.LBB18_135:                             # %for.inc507.i
                                        #   in Loop: Header=BB18_24 Depth=1
	movq	1680(%rsp), %rax        # 8-byte Reload
	addq	$1, %rax
	cmpq	$256, %rax              # imm = 0x100
	movl	648(%rsp), %ecx         # 4-byte Reload
	movq	%rax, 1696(%rsp)        # 8-byte Spill
	movl	%ecx, 1708(%rsp)        # 4-byte Spill
	jb	.LBB18_24
# %bb.136:                              # %for.end509.i
	movb	1935(%rsp), %al         # 1-byte Reload
	testb	$1, %al
	jne	.LBB18_137
	jmp	.LBB18_138
.LBB18_137:                             # %if.then512.i
	movabsq	$.L.str.8.3, %rsi
	movq	stderr, %rdi
	movl	$3467, 6612(%rsp)       # imm = 0xD8B
	movl	2020(%rsp), %eax        # 4-byte Reload
	movl	648(%rsp), %ecx         # 4-byte Reload
	subl	%ecx, %eax
	movl	2020(%rsp), %edx        # 4-byte Reload
	movl	%eax, %r8d
	movb	$0, %al
	callq	fprintf
	movl	%eax, 412(%rsp)         # 4-byte Spill
.LBB18_138:                             # %mainSort.exit
	movl	2016(%rsp), %eax        # 4-byte Reload
	cmpl	$2, %eax
	jg	.LBB18_140
# %bb.139:                              # %mainSort.exit.if.end21_crit_edge
	movl	2076(%rsp), %eax
	movl	$3469, 6612(%rsp)       # imm = 0xD8D
	movl	%eax, 408(%rsp)         # 4-byte Spill
	jmp	.LBB18_141
.LBB18_140:                             # %if.then13
	movabsq	$.L.str, %rsi
	movss	.LCPI18_64(%rip), %xmm0 # xmm0 = mem[0],zero,zero,zero
	movq	stderr, %rdi
	movl	$3470, 6612(%rsp)       # imm = 0xD8E
	movl	2076(%rsp), %eax
	movl	$3487, 6612(%rsp)       # imm = 0xD9F
	movl	1964(%rsp), %ecx        # 4-byte Reload
	subl	%eax, %ecx
	cvtsi2ssl	%ecx, %xmm1
	movl	2020(%rsp), %edx        # 4-byte Reload
	cvtsi2ssl	%edx, %xmm2
	cmpl	$0, %edx
	movq	%rsi, 400(%rsp)         # 8-byte Spill
	movss	%xmm2, 396(%rsp)        # 4-byte Spill
	movq	%rdi, 384(%rsp)         # 8-byte Spill
	movl	%eax, 380(%rsp)         # 4-byte Spill
	movl	%ecx, 376(%rsp)         # 4-byte Spill
	movss	%xmm1, 372(%rsp)        # 4-byte Spill
	movss	%xmm0, 368(%rsp)        # 4-byte Spill
	je	.LBB18_181
# %bb.180:                              # %if.then13
	movss	396(%rsp), %xmm0        # 4-byte Reload
                                        # xmm0 = mem[0],zero,zero,zero
	movss	%xmm0, 368(%rsp)        # 4-byte Spill
.LBB18_181:                             # %if.then13
	movss	368(%rsp), %xmm0        # 4-byte Reload
                                        # xmm0 = mem[0],zero,zero,zero
	movss	372(%rsp), %xmm1        # 4-byte Reload
                                        # xmm1 = mem[0],zero,zero,zero
	divss	%xmm0, %xmm1
	cvtss2sd	%xmm1, %xmm0
	movq	384(%rsp), %rdi         # 8-byte Reload
	movq	400(%rsp), %rsi         # 8-byte Reload
	movl	376(%rsp), %edx         # 4-byte Reload
	movl	2020(%rsp), %ecx        # 4-byte Reload
	movb	$1, %al
	callq	fprintf
	movl	380(%rsp), %ecx         # 4-byte Reload
	movl	%eax, 364(%rsp)         # 4-byte Spill
	movl	%ecx, 408(%rsp)         # 4-byte Spill
.LBB18_141:                             # %if.end21
	movl	408(%rsp), %eax         # 4-byte Reload
	cmpl	$0, %eax
	jge	.LBB18_145
# %bb.142:                              # %if.then24
	movl	2016(%rsp), %eax        # 4-byte Reload
	cmpl	$1, %eax
	jle	.LBB18_144
# %bb.143:                              # %if.then27
	movl	$53, %eax
	movl	%eax, %esi
	movl	$1, %eax
	movl	%eax, %edx
	movabsq	$.L.str.1, %rdi
	movq	stderr, %rcx
	movl	$3493, 6612(%rsp)       # imm = 0xDA5
	callq	fwrite
	movq	%rax, 352(%rsp)         # 8-byte Spill
.LBB18_144:                             # %if.end29
	movq	2064(%rsp), %rax        # 8-byte Reload
	movq	24(%rax), %rdi
	movl	$3495, 6612(%rsp)       # imm = 0xDA7
	movq	32(%rax), %rsi
	movl	$3499, 6612(%rsp)       # imm = 0xDAB
	movq	2032(%rsp), %rdx        # 8-byte Reload
	movl	2020(%rsp), %ecx        # 4-byte Reload
	movl	2016(%rsp), %r8d        # 4-byte Reload
	callq	fallbackSort
.LBB18_145:                             # %if.end33
	movq	2064(%rsp), %rax        # 8-byte Reload
	addq	$48, %rax
	movq	2064(%rsp), %rcx        # 8-byte Reload
	movl	$-1, 48(%rcx)
	movl	$3500, 6612(%rsp)       # imm = 0xDAC
	movq	2024(%rsp), %rdx        # 8-byte Reload
	movl	(%rdx), %esi
	movl	$3508, 6612(%rsp)       # imm = 0xDB4
	cmpl	$0, %esi
	movq	%rax, 344(%rsp)         # 8-byte Spill
	movl	%esi, 340(%rsp)         # 4-byte Spill
	jle	.LBB18_150
# %bb.146:                              # %for.body.lr.ph
	xorl	%eax, %eax
	movl	%eax, %ecx
	movl	340(%rsp), %eax         # 4-byte Reload
	movslq	%eax, %rdx
	movq	%rdx, 328(%rsp)         # 8-byte Spill
	movq	%rcx, 320(%rsp)         # 8-byte Spill
.LBB18_147:                             # %for.body
                                        # =>This Inner Loop Header: Depth=1
	movq	320(%rsp), %rax         # 8-byte Reload
	movq	2048(%rsp), %rcx        # 8-byte Reload
	movl	(%rcx,%rax,4), %edx
	movl	$3512, 6612(%rsp)       # imm = 0xDB8
	cmpl	$0, %edx
	movq	%rax, 312(%rsp)         # 8-byte Spill
	jne	.LBB18_149
# %bb.148:                              # %for.end.thread
	movq	312(%rsp), %rax         # 8-byte Reload
	movl	%eax, %ecx
	movq	344(%rsp), %rdx         # 8-byte Reload
	movl	%ecx, (%rdx)
	movl	$3525, 6612(%rsp)       # imm = 0xDC5
	jmp	.LBB18_151
.LBB18_149:                             # %for.inc
                                        #   in Loop: Header=BB18_147 Depth=1
	movq	312(%rsp), %rax         # 8-byte Reload
	addq	$1, %rax
	movq	328(%rsp), %rcx         # 8-byte Reload
	cmpq	%rcx, %rax
	movq	%rax, 320(%rsp)         # 8-byte Spill
	jl	.LBB18_147
.LBB18_150:                             # %if.then48
	movl	$1003, %edi             # imm = 0x3EB
	callq	BZ2_bz__AssertH__fail
.LBB18_151:                             # %if.end49
	addq	$6616, %rsp             # imm = 0x19D8
	popq	%rbx
	popq	%r12
	popq	%r13
	popq	%r14
	popq	%r15
	popq	%rbp
	retq
.LBB18_152:                             # %for.body230.i.1
                                        # =>This Loop Header: Depth=1
                                        #     Child Loop BB18_153 Depth 2
	movq	1712(%rsp), %rax        # 8-byte Reload
	movl	4384(%rsp,%rax,4), %ecx
	movl	$3530, 6612(%rsp)       # imm = 0xDCA
	movl	%ecx, %edx
	shll	$8, %edx
	movl	%edx, %esi
	addl	$256, %esi              # imm = 0x100
	movslq	%esi, %rdi
	movq	2032(%rsp), %r8         # 8-byte Reload
	movl	(%r8,%rdi,4), %esi
	movl	$3533, 6612(%rsp)       # imm = 0xDCD
	movslq	%edx, %rdi
	movl	(%r8,%rdi,4), %edx
	movl	$3541, 6612(%rsp)       # imm = 0xDD5
	subl	%edx, %esi
	movl	%eax, %edx
	movq	%rax, 304(%rsp)         # 8-byte Spill
	movl	%ecx, 300(%rsp)         # 4-byte Spill
	movl	%esi, 296(%rsp)         # 4-byte Spill
	movl	%edx, 292(%rsp)         # 4-byte Spill
.LBB18_153:                             # %while.cond.i.1
                                        #   Parent Loop BB18_152 Depth=1
                                        # =>  This Inner Loop Header: Depth=2
	movl	292(%rsp), %eax         # 4-byte Reload
	movl	%eax, %ecx
	addl	$-40, %ecx
	movslq	%ecx, %rdx
	movl	4384(%rsp,%rdx,4), %esi
	movl	$3546, 6612(%rsp)       # imm = 0xDDA
	movl	%esi, %edi
	shll	$8, %edi
	movl	%edi, %r8d
	addl	$256, %r8d              # imm = 0x100
	movslq	%r8d, %r9
	movq	2032(%rsp), %r10        # 8-byte Reload
	movl	(%r10,%r9,4), %r8d
	movl	$3549, 6612(%rsp)       # imm = 0xDDD
	movslq	%edi, %r9
	movl	(%r10,%r9,4), %edi
	movl	$3555, 6612(%rsp)       # imm = 0xDE3
	subl	%edi, %r8d
	movslq	%eax, %r9
	movl	296(%rsp), %edi         # 4-byte Reload
	cmpl	%edi, %r8d
	movq	%r9, %r11
	movl	%eax, 288(%rsp)         # 4-byte Spill
	movl	%ecx, 284(%rsp)         # 4-byte Spill
	movq	%rdx, 272(%rsp)         # 8-byte Spill
	movl	%esi, 268(%rsp)         # 4-byte Spill
	movq	%r9, 256(%rsp)          # 8-byte Spill
	movq	%r11, 248(%rsp)         # 8-byte Spill
	jbe	.LBB18_155
# %bb.154:                              # %while.body.i.1
                                        #   in Loop: Header=BB18_153 Depth=2
	movq	256(%rsp), %rax         # 8-byte Reload
	movl	268(%rsp), %ecx         # 4-byte Reload
	movl	%ecx, 4384(%rsp,%rax,4)
	movl	$3560, 6612(%rsp)       # imm = 0xDE8
	movl	288(%rsp), %edx         # 4-byte Reload
	cmpl	$80, %edx
	movl	284(%rsp), %esi         # 4-byte Reload
	movq	272(%rsp), %rdi         # 8-byte Reload
	movl	%esi, 292(%rsp)         # 4-byte Spill
	movq	%rdi, 248(%rsp)         # 8-byte Spill
	jge	.LBB18_153
.LBB18_155:                             # %zero.i.1
                                        #   in Loop: Header=BB18_152 Depth=1
	movq	248(%rsp), %rax         # 8-byte Reload
	movl	300(%rsp), %ecx         # 4-byte Reload
	movl	%ecx, 4384(%rsp,%rax,4)
	movl	$3568, 6612(%rsp)       # imm = 0xDF0
	movq	304(%rsp), %rax         # 8-byte Reload
	addq	$1, %rax
	movq	304(%rsp), %rdx         # 8-byte Reload
	cmpq	$255, %rdx
	movq	%rax, 1712(%rsp)        # 8-byte Spill
	jb	.LBB18_152
# %bb.156:                              # %for.body230.i.2.preheader
	movl	$13, %eax
	movl	%eax, %ecx
	movq	%rcx, 240(%rsp)         # 8-byte Spill
	jmp	.LBB18_157
.LBB18_157:                             # %for.body230.i.2
                                        # =>This Loop Header: Depth=1
                                        #     Child Loop BB18_158 Depth 2
	movq	240(%rsp), %rax         # 8-byte Reload
	movl	4384(%rsp,%rax,4), %ecx
	movl	$3573, 6612(%rsp)       # imm = 0xDF5
	movl	%ecx, %edx
	shll	$8, %edx
	movl	%edx, %esi
	addl	$256, %esi              # imm = 0x100
	movslq	%esi, %rdi
	movq	2032(%rsp), %r8         # 8-byte Reload
	movl	(%r8,%rdi,4), %esi
	movl	$3576, 6612(%rsp)       # imm = 0xDF8
	movslq	%edx, %rdi
	movl	(%r8,%rdi,4), %edx
	movl	$3584, 6612(%rsp)       # imm = 0xE00
	subl	%edx, %esi
	movl	%eax, %edx
	movq	%rax, 232(%rsp)         # 8-byte Spill
	movl	%ecx, 228(%rsp)         # 4-byte Spill
	movl	%esi, 224(%rsp)         # 4-byte Spill
	movl	%edx, 220(%rsp)         # 4-byte Spill
.LBB18_158:                             # %while.cond.i.2
                                        #   Parent Loop BB18_157 Depth=1
                                        # =>  This Inner Loop Header: Depth=2
	movl	220(%rsp), %eax         # 4-byte Reload
	movl	%eax, %ecx
	addl	$-13, %ecx
	movslq	%ecx, %rdx
	movl	4384(%rsp,%rdx,4), %esi
	movl	$3589, 6612(%rsp)       # imm = 0xE05
	movl	%esi, %edi
	shll	$8, %edi
	movl	%edi, %r8d
	addl	$256, %r8d              # imm = 0x100
	movslq	%r8d, %r9
	movq	2032(%rsp), %r10        # 8-byte Reload
	movl	(%r10,%r9,4), %r8d
	movl	$3592, 6612(%rsp)       # imm = 0xE08
	movslq	%edi, %r9
	movl	(%r10,%r9,4), %edi
	movl	$3598, 6612(%rsp)       # imm = 0xE0E
	subl	%edi, %r8d
	movslq	%eax, %r9
	movl	224(%rsp), %edi         # 4-byte Reload
	cmpl	%edi, %r8d
	movq	%r9, %r11
	movl	%eax, 216(%rsp)         # 4-byte Spill
	movl	%ecx, 212(%rsp)         # 4-byte Spill
	movq	%rdx, 200(%rsp)         # 8-byte Spill
	movl	%esi, 196(%rsp)         # 4-byte Spill
	movq	%r9, 184(%rsp)          # 8-byte Spill
	movq	%r11, 176(%rsp)         # 8-byte Spill
	jbe	.LBB18_160
# %bb.159:                              # %while.body.i.2
                                        #   in Loop: Header=BB18_158 Depth=2
	movq	184(%rsp), %rax         # 8-byte Reload
	movl	196(%rsp), %ecx         # 4-byte Reload
	movl	%ecx, 4384(%rsp,%rax,4)
	movl	$3603, 6612(%rsp)       # imm = 0xE13
	movl	216(%rsp), %edx         # 4-byte Reload
	cmpl	$26, %edx
	movl	212(%rsp), %esi         # 4-byte Reload
	movq	200(%rsp), %rdi         # 8-byte Reload
	movl	%esi, 220(%rsp)         # 4-byte Spill
	movq	%rdi, 176(%rsp)         # 8-byte Spill
	jge	.LBB18_158
.LBB18_160:                             # %zero.i.2
                                        #   in Loop: Header=BB18_157 Depth=1
	movq	176(%rsp), %rax         # 8-byte Reload
	movl	228(%rsp), %ecx         # 4-byte Reload
	movl	%ecx, 4384(%rsp,%rax,4)
	movl	$3610, 6612(%rsp)       # imm = 0xE1A
	movq	232(%rsp), %rax         # 8-byte Reload
	addq	$1, %rax
	movq	232(%rsp), %rdx         # 8-byte Reload
	cmpq	$255, %rdx
	movq	%rax, 240(%rsp)         # 8-byte Spill
	jb	.LBB18_157
# %bb.161:                              # %for.body230.i.3.preheader
	movl	$4, %eax
	movl	%eax, %ecx
	movq	%rcx, 168(%rsp)         # 8-byte Spill
	jmp	.LBB18_162
.LBB18_162:                             # %for.body230.i.3
                                        # =>This Loop Header: Depth=1
                                        #     Child Loop BB18_163 Depth 2
	movq	168(%rsp), %rax         # 8-byte Reload
	movl	4384(%rsp,%rax,4), %ecx
	movl	$3615, 6612(%rsp)       # imm = 0xE1F
	movl	%ecx, %edx
	shll	$8, %edx
	movl	%edx, %esi
	addl	$256, %esi              # imm = 0x100
	movslq	%esi, %rdi
	movq	2032(%rsp), %r8         # 8-byte Reload
	movl	(%r8,%rdi,4), %esi
	movl	$3618, 6612(%rsp)       # imm = 0xE22
	movslq	%edx, %rdi
	movl	(%r8,%rdi,4), %edx
	movl	$3626, 6612(%rsp)       # imm = 0xE2A
	subl	%edx, %esi
	movl	%eax, %edx
	movq	%rax, 160(%rsp)         # 8-byte Spill
	movl	%ecx, 156(%rsp)         # 4-byte Spill
	movl	%esi, 152(%rsp)         # 4-byte Spill
	movl	%edx, 148(%rsp)         # 4-byte Spill
.LBB18_163:                             # %while.cond.i.3
                                        #   Parent Loop BB18_162 Depth=1
                                        # =>  This Inner Loop Header: Depth=2
	movl	148(%rsp), %eax         # 4-byte Reload
	movl	%eax, %ecx
	addl	$-4, %ecx
	movslq	%ecx, %rdx
	movl	4384(%rsp,%rdx,4), %esi
	movl	$3631, 6612(%rsp)       # imm = 0xE2F
	movl	%esi, %edi
	shll	$8, %edi
	movl	%edi, %r8d
	addl	$256, %r8d              # imm = 0x100
	movslq	%r8d, %r9
	movq	2032(%rsp), %r10        # 8-byte Reload
	movl	(%r10,%r9,4), %r8d
	movl	$3634, 6612(%rsp)       # imm = 0xE32
	movslq	%edi, %r9
	movl	(%r10,%r9,4), %edi
	movl	$3640, 6612(%rsp)       # imm = 0xE38
	subl	%edi, %r8d
	movslq	%eax, %r9
	movl	152(%rsp), %edi         # 4-byte Reload
	cmpl	%edi, %r8d
	movq	%r9, %r11
	movl	%eax, 144(%rsp)         # 4-byte Spill
	movl	%ecx, 140(%rsp)         # 4-byte Spill
	movq	%rdx, 128(%rsp)         # 8-byte Spill
	movl	%esi, 124(%rsp)         # 4-byte Spill
	movq	%r9, 112(%rsp)          # 8-byte Spill
	movq	%r11, 104(%rsp)         # 8-byte Spill
	jbe	.LBB18_165
# %bb.164:                              # %while.body.i.3
                                        #   in Loop: Header=BB18_163 Depth=2
	movq	112(%rsp), %rax         # 8-byte Reload
	movl	124(%rsp), %ecx         # 4-byte Reload
	movl	%ecx, 4384(%rsp,%rax,4)
	movl	$3645, 6612(%rsp)       # imm = 0xE3D
	movl	144(%rsp), %edx         # 4-byte Reload
	cmpl	$8, %edx
	movl	140(%rsp), %esi         # 4-byte Reload
	movq	128(%rsp), %rdi         # 8-byte Reload
	movl	%esi, 148(%rsp)         # 4-byte Spill
	movq	%rdi, 104(%rsp)         # 8-byte Spill
	jge	.LBB18_163
.LBB18_165:                             # %zero.i.3
                                        #   in Loop: Header=BB18_162 Depth=1
	movq	104(%rsp), %rax         # 8-byte Reload
	movl	156(%rsp), %ecx         # 4-byte Reload
	movl	%ecx, 4384(%rsp,%rax,4)
	movl	$3652, 6612(%rsp)       # imm = 0xE44
	movq	160(%rsp), %rax         # 8-byte Reload
	addq	$1, %rax
	movq	160(%rsp), %rdx         # 8-byte Reload
	cmpq	$255, %rdx
	movq	%rax, 168(%rsp)         # 8-byte Spill
	jb	.LBB18_162
# %bb.166:                              # %for.body230.i.4.preheader
	movl	$1, %eax
	movl	%eax, %ecx
	movq	%rcx, 96(%rsp)          # 8-byte Spill
	jmp	.LBB18_167
.LBB18_167:                             # %for.body230.i.4
                                        # =>This Loop Header: Depth=1
                                        #     Child Loop BB18_168 Depth 2
	movq	96(%rsp), %rax          # 8-byte Reload
	movl	4384(%rsp,%rax,4), %ecx
	movl	$3657, 6612(%rsp)       # imm = 0xE49
	movl	%ecx, %edx
	shll	$8, %edx
	movl	%edx, %esi
	addl	$256, %esi              # imm = 0x100
	movslq	%esi, %rdi
	movq	2032(%rsp), %r8         # 8-byte Reload
	movl	(%r8,%rdi,4), %esi
	movl	$3660, 6612(%rsp)       # imm = 0xE4C
	movslq	%edx, %rdi
	movl	(%r8,%rdi,4), %edx
	movl	$3668, 6612(%rsp)       # imm = 0xE54
	subl	%edx, %esi
	movl	%eax, %edx
	movq	%rax, 88(%rsp)          # 8-byte Spill
	movl	%ecx, 84(%rsp)          # 4-byte Spill
	movl	%esi, 80(%rsp)          # 4-byte Spill
	movl	%edx, 76(%rsp)          # 4-byte Spill
.LBB18_168:                             # %while.cond.i.4
                                        #   Parent Loop BB18_167 Depth=1
                                        # =>  This Inner Loop Header: Depth=2
	movl	76(%rsp), %eax          # 4-byte Reload
	movl	%eax, %ecx
	addl	$-1, %ecx
	movslq	%ecx, %rdx
	movl	4384(%rsp,%rdx,4), %esi
	movl	$3673, 6612(%rsp)       # imm = 0xE59
	movl	%esi, %edi
	shll	$8, %edi
	movl	%edi, %r8d
	addl	$256, %r8d              # imm = 0x100
	movslq	%r8d, %r9
	movq	2032(%rsp), %r10        # 8-byte Reload
	movl	(%r10,%r9,4), %r8d
	movl	$3676, 6612(%rsp)       # imm = 0xE5C
	movslq	%edi, %r9
	movl	(%r10,%r9,4), %edi
	movl	$3682, 6612(%rsp)       # imm = 0xE62
	subl	%edi, %r8d
	movslq	%eax, %r9
	movl	80(%rsp), %edi          # 4-byte Reload
	cmpl	%edi, %r8d
	movq	%r9, %r11
	movl	%eax, 72(%rsp)          # 4-byte Spill
	movl	%ecx, 68(%rsp)          # 4-byte Spill
	movq	%rdx, 56(%rsp)          # 8-byte Spill
	movl	%esi, 52(%rsp)          # 4-byte Spill
	movq	%r9, 40(%rsp)           # 8-byte Spill
	movq	%r11, 32(%rsp)          # 8-byte Spill
	jbe	.LBB18_170
# %bb.169:                              # %while.body.i.4
                                        #   in Loop: Header=BB18_168 Depth=2
	movq	40(%rsp), %rax          # 8-byte Reload
	movl	52(%rsp), %ecx          # 4-byte Reload
	movl	%ecx, 4384(%rsp,%rax,4)
	movl	$3687, 6612(%rsp)       # imm = 0xE67
	movl	72(%rsp), %edx          # 4-byte Reload
	cmpl	$2, %edx
	movl	68(%rsp), %esi          # 4-byte Reload
	movq	56(%rsp), %rdi          # 8-byte Reload
	movl	%esi, 76(%rsp)          # 4-byte Spill
	movq	%rdi, 32(%rsp)          # 8-byte Spill
	jge	.LBB18_168
.LBB18_170:                             # %zero.i.4
                                        #   in Loop: Header=BB18_167 Depth=1
	movq	32(%rsp), %rax          # 8-byte Reload
	movl	84(%rsp), %ecx          # 4-byte Reload
	movl	%ecx, 4384(%rsp,%rax,4)
	movl	$3714, 6612(%rsp)       # imm = 0xE82
	movq	88(%rsp), %rax          # 8-byte Reload
	addq	$1, %rax
	movq	88(%rsp), %rdx          # 8-byte Reload
	cmpq	$255, %rdx
	movq	%rax, 96(%rsp)          # 8-byte Spill
	jb	.LBB18_167
# %bb.171:                              # %do.cond273.i.4
	xorl	%eax, %eax
	movl	%eax, %ecx
	xorl	%eax, %eax
	leaq	5408(%rsp), %rdx
	leaq	5808(%rsp), %rsi
	leaq	6208(%rsp), %rdi
	movq	%rdi, %r8
	movq	%rsi, %r9
	movq	%rdx, %r10
	movq	2048(%rsp), %r11        # 8-byte Reload
	addq	$4, %r11
	movq	2048(%rsp), %rbx        # 8-byte Reload
	addq	$4, %rbx
	movq	2048(%rsp), %r14        # 8-byte Reload
	addq	$8, %r14
	movq	2048(%rsp), %r15        # 8-byte Reload
	addq	$4, %r15
	movq	2048(%rsp), %r12        # 8-byte Reload
	addq	$4, %r12
	movq	%r12, 856(%rsp)         # 8-byte Spill
	movq	%rcx, 1696(%rsp)        # 8-byte Spill
	movq	%rdx, 1568(%rsp)        # 8-byte Spill
	movq	%rsi, 1576(%rsp)        # 8-byte Spill
	movq	%rdi, 1584(%rsp)        # 8-byte Spill
	movq	%r8, 24(%rsp)           # 8-byte Spill
	movq	%r9, 16(%rsp)           # 8-byte Spill
	movq	%r10, 8(%rsp)           # 8-byte Spill
	movq	%r11, 728(%rsp)         # 8-byte Spill
	movq	%rbx, 720(%rsp)         # 8-byte Spill
	movq	%r14, 712(%rsp)         # 8-byte Spill
	movq	%r15, 864(%rsp)         # 8-byte Spill
	movl	%eax, 1708(%rsp)        # 4-byte Spill
	jmp	.LBB18_24
.Lfunc_end18:
	.size	BZ2_blockSort, .Lfunc_end18-BZ2_blockSort
	.cfi_endproc
                                        # -- End function
	.p2align	4, 0x90         # -- Begin function fallbackSort
	.type	fallbackSort,@function
fallbackSort:                           # @fallbackSort
	.cfi_startproc
# %bb.0:                                # %entry
	pushq	%rbp
	.cfi_def_cfa_offset 16
	pushq	%r15
	.cfi_def_cfa_offset 24
	pushq	%r14
	.cfi_def_cfa_offset 32
	pushq	%r12
	.cfi_def_cfa_offset 40
	pushq	%rbx
	.cfi_def_cfa_offset 48
	subq	$4272, %rsp             # imm = 0x10B0
	.cfi_def_cfa_offset 4320
	.cfi_offset %rbx, -48
	.cfi_offset %r12, -40
	.cfi_offset %r14, -32
	.cfi_offset %r15, -24
	.cfi_offset %rbp, -16
	leaq	1392(%rsp), %rax
	leaq	2416(%rsp), %r9
	movl	$9999, 4268(%rsp)       # imm = 0x270F
	movq	%rdx, %r10
	movq	%rsi, %r11
	cmpl	$3, %r8d
	setg	%bl
	testb	$1, %bl
	movq	%rsi, 1384(%rsp)        # 8-byte Spill
	movq	%r11, 1376(%rsp)        # 8-byte Spill
	movl	%ecx, 1372(%rsp)        # 4-byte Spill
	movq	%rdx, 1360(%rsp)        # 8-byte Spill
	movq	%rdi, 1352(%rsp)        # 8-byte Spill
	movq	%r9, 1344(%rsp)         # 8-byte Spill
	movq	%r10, 1336(%rsp)        # 8-byte Spill
	movq	%rax, 1328(%rsp)        # 8-byte Spill
	movb	%bl, 1327(%rsp)         # 1-byte Spill
	jne	.LBB19_1
	jmp	.LBB19_2
.LBB19_1:                               # %if.then
	movl	$27, %eax
	movl	%eax, %esi
	movl	$1, %eax
	movl	%eax, %edx
	movabsq	$.L.str.2, %rdi
	movq	stderr, %rcx
	movl	$3733, 4268(%rsp)       # imm = 0xE95
	callq	fwrite
	movq	%rax, 1312(%rsp)        # 8-byte Spill
.LBB19_2:                               # %if.end
	xorl	%eax, %eax
	movl	$1028, %ecx             # imm = 0x404
	movl	%ecx, %edx
	movq	1344(%rsp), %rdi        # 8-byte Reload
	movl	%eax, %esi
	movl	%eax, 1308(%rsp)        # 4-byte Spill
	callq	memset
	movl	1372(%rsp), %eax        # 4-byte Reload
	cmpl	$0, %eax
	setg	%r8b
	testb	$1, %r8b
	movl	1308(%rsp), %ecx        # 4-byte Reload
	movb	%r8b, 1307(%rsp)        # 1-byte Spill
	movl	%ecx, 1300(%rsp)        # 4-byte Spill
	jne	.LBB19_3
	jmp	.LBB19_10
.LBB19_3:                               # %for.body4.lr.ph
	xorl	%eax, %eax
	movl	%eax, %ecx
	movl	1372(%rsp), %eax        # 4-byte Reload
	movl	%eax, %edx
	movl	%edx, %esi
	movq	%rsi, %rdi
	addq	$-1, %rdi
	movq	%rsi, %r8
	andq	$3, %r8
	cmpq	$3, %rdi
	movq	%r8, 1288(%rsp)         # 8-byte Spill
	movq	%rsi, 1280(%rsp)        # 8-byte Spill
	movq	%rcx, 1272(%rsp)        # 8-byte Spill
	jb	.LBB19_6
# %bb.4:                                # %for.body4.lr.ph.new
	xorl	%eax, %eax
	movl	%eax, %ecx
	movq	1280(%rsp), %rdx        # 8-byte Reload
	movq	1288(%rsp), %rsi        # 8-byte Reload
	subq	%rsi, %rdx
	movq	%rcx, 1264(%rsp)        # 8-byte Spill
	movq	%rdx, 1256(%rsp)        # 8-byte Spill
.LBB19_5:                               # %for.body4
                                        # =>This Inner Loop Header: Depth=1
	movq	1256(%rsp), %rax        # 8-byte Reload
	movq	1264(%rsp), %rcx        # 8-byte Reload
	movq	1376(%rsp), %rdx        # 8-byte Reload
	movb	(%rdx,%rcx), %sil
	movl	$3736, 4268(%rsp)       # imm = 0xE98
	movzbl	%sil, %edi
	movl	%edi, %r8d
	movl	2416(%rsp,%r8,4), %edi
	movl	$3738, 4268(%rsp)       # imm = 0xE9A
	addl	$1, %edi
	movl	%edi, 2416(%rsp,%r8,4)
	movl	$3741, 4268(%rsp)       # imm = 0xE9D
	movq	%rcx, %r8
	orq	$1, %r8
	movb	(%rdx,%r8), %sil
	movl	$3744, 4268(%rsp)       # imm = 0xEA0
	movzbl	%sil, %edi
	movl	%edi, %r8d
	movl	2416(%rsp,%r8,4), %edi
	movl	$3746, 4268(%rsp)       # imm = 0xEA2
	addl	$1, %edi
	movl	%edi, 2416(%rsp,%r8,4)
	movl	$3749, 4268(%rsp)       # imm = 0xEA5
	movq	%rcx, %r8
	orq	$2, %r8
	movb	(%rdx,%r8), %sil
	movl	$3752, 4268(%rsp)       # imm = 0xEA8
	movzbl	%sil, %edi
	movl	%edi, %r8d
	movl	2416(%rsp,%r8,4), %edi
	movl	$3754, 4268(%rsp)       # imm = 0xEAA
	addl	$1, %edi
	movl	%edi, 2416(%rsp,%r8,4)
	movl	$3757, 4268(%rsp)       # imm = 0xEAD
	movq	%rcx, %r8
	orq	$3, %r8
	movb	(%rdx,%r8), %sil
	movl	$3760, 4268(%rsp)       # imm = 0xEB0
	movzbl	%sil, %edi
	movl	%edi, %r8d
	movl	2416(%rsp,%r8,4), %edi
	movl	$3762, 4268(%rsp)       # imm = 0xEB2
	addl	$1, %edi
	movl	%edi, 2416(%rsp,%r8,4)
	movl	$3774, 4268(%rsp)       # imm = 0xEBE
	addq	$4, %rcx
	addq	$-4, %rax
	cmpq	$0, %rax
	movq	%rcx, %r8
	movq	%rax, 1256(%rsp)        # 8-byte Spill
	movq	%r8, 1264(%rsp)         # 8-byte Spill
	movq	%rcx, 1272(%rsp)        # 8-byte Spill
	jne	.LBB19_5
.LBB19_6:                               # %for.end12.loopexit.unr-lcssa
	movq	1272(%rsp), %rax        # 8-byte Reload
	movq	1288(%rsp), %rcx        # 8-byte Reload
	cmpq	$0, %rcx
	movq	%rax, 1248(%rsp)        # 8-byte Spill
	je	.LBB19_9
# %bb.7:                                # %for.body4.epil.preheader
	movq	1248(%rsp), %rax        # 8-byte Reload
	movq	1288(%rsp), %rcx        # 8-byte Reload
	movq	%rax, 1240(%rsp)        # 8-byte Spill
	movq	%rcx, 1232(%rsp)        # 8-byte Spill
	jmp	.LBB19_8
.LBB19_8:                               # %for.body4.epil
                                        # =>This Inner Loop Header: Depth=1
	movq	1232(%rsp), %rax        # 8-byte Reload
	movq	1240(%rsp), %rcx        # 8-byte Reload
	movq	1376(%rsp), %rdx        # 8-byte Reload
	movb	(%rdx,%rcx), %sil
	movl	$3777, 4268(%rsp)       # imm = 0xEC1
	movzbl	%sil, %edi
	movl	%edi, %r8d
	movl	2416(%rsp,%r8,4), %edi
	movl	$3779, 4268(%rsp)       # imm = 0xEC3
	addl	$1, %edi
	movl	%edi, 2416(%rsp,%r8,4)
	movl	$3783, 4268(%rsp)       # imm = 0xEC7
	addq	$1, %rcx
	addq	$-1, %rax
	cmpq	$0, %rax
	movq	%rcx, 1240(%rsp)        # 8-byte Spill
	movq	%rax, 1232(%rsp)        # 8-byte Spill
	jne	.LBB19_8
.LBB19_9:                               # %for.end12.loopexit
	movl	2416(%rsp), %eax
	movl	$3793, 4268(%rsp)       # imm = 0xED1
	movl	%eax, 1300(%rsp)        # 4-byte Spill
.LBB19_10:                              # %for.end12
	movl	1300(%rsp), %eax        # 4-byte Reload
	movl	$1, %ecx
	movl	%ecx, %edx
	movl	$1024, %ecx             # imm = 0x400
	movl	%ecx, %esi
	movq	1328(%rsp), %rdi        # 8-byte Reload
	movq	1344(%rsp), %r8         # 8-byte Reload
	movq	%rsi, 1224(%rsp)        # 8-byte Spill
	movq	%r8, %rsi
	movq	1224(%rsp), %r9         # 8-byte Reload
	movq	%rdx, 1216(%rsp)        # 8-byte Spill
	movq	%r9, %rdx
	movl	%eax, 1212(%rsp)        # 4-byte Spill
	callq	memcpy
	movl	1212(%rsp), %eax        # 4-byte Reload
	movq	1216(%rsp), %rdx        # 8-byte Reload
	movl	%eax, 1208(%rsp)        # 4-byte Spill
	movq	%rdx, 1200(%rsp)        # 8-byte Spill
.LBB19_11:                              # %for.body25
                                        # =>This Inner Loop Header: Depth=1
	movq	1200(%rsp), %rax        # 8-byte Reload
	movl	1208(%rsp), %ecx        # 4-byte Reload
	movl	2416(%rsp,%rax,4), %edx
	movl	$3795, 4268(%rsp)       # imm = 0xED3
	addl	%ecx, %edx
	movl	%edx, 2416(%rsp,%rax,4)
	movl	$3798, 4268(%rsp)       # imm = 0xED6
	movl	2420(%rsp,%rax,4), %ecx
	movl	$3800, 4268(%rsp)       # imm = 0xED8
	addl	%edx, %ecx
	movl	%ecx, 2420(%rsp,%rax,4)
	movl	$3803, 4268(%rsp)       # imm = 0xEDB
	movl	2424(%rsp,%rax,4), %edx
	movl	$3805, 4268(%rsp)       # imm = 0xEDD
	addl	%ecx, %edx
	movl	%edx, 2424(%rsp,%rax,4)
	movl	$3808, 4268(%rsp)       # imm = 0xEE0
	movl	2428(%rsp,%rax,4), %ecx
	movl	$3809, 4268(%rsp)       # imm = 0xEE1
	addl	%edx, %ecx
	movl	%ecx, 2428(%rsp,%rax,4)
	movl	$3824, 4268(%rsp)       # imm = 0xEF0
	addq	$4, %rax
	cmpq	$257, %rax              # imm = 0x101
	movl	%ecx, 1208(%rsp)        # 4-byte Spill
	movq	%rax, 1200(%rsp)        # 8-byte Spill
	jne	.LBB19_11
# %bb.12:                               # %for.end32
	movb	1307(%rsp), %al         # 1-byte Reload
	testb	$1, %al
	jne	.LBB19_13
	jmp	.LBB19_18
.LBB19_13:                              # %for.body35.lr.ph
	xorl	%eax, %eax
	movl	%eax, %ecx
	movl	1372(%rsp), %eax        # 4-byte Reload
	movl	%eax, %edx
	movl	%edx, %esi
	movq	%rsi, %rdi
	andq	$1, %rdi
	cmpl	$1, %eax
	movq	%rdi, 1192(%rsp)        # 8-byte Spill
	movq	%rsi, 1184(%rsp)        # 8-byte Spill
	movq	%rcx, 1176(%rsp)        # 8-byte Spill
	je	.LBB19_16
# %bb.14:                               # %for.body35.lr.ph.new
	xorl	%eax, %eax
	movl	%eax, %ecx
	movq	1184(%rsp), %rdx        # 8-byte Reload
	movq	1192(%rsp), %rsi        # 8-byte Reload
	subq	%rsi, %rdx
	movq	%rcx, 1168(%rsp)        # 8-byte Spill
	movq	%rdx, 1160(%rsp)        # 8-byte Spill
.LBB19_15:                              # %for.body35
                                        # =>This Inner Loop Header: Depth=1
	movq	1160(%rsp), %rax        # 8-byte Reload
	movq	1168(%rsp), %rcx        # 8-byte Reload
	movq	1376(%rsp), %rdx        # 8-byte Reload
	movb	(%rdx,%rcx), %sil
	movl	$3827, 4268(%rsp)       # imm = 0xEF3
	movzbl	%sil, %edi
	movl	%edi, %r8d
	movl	2416(%rsp,%r8,4), %edi
	movl	$3829, 4268(%rsp)       # imm = 0xEF5
	addl	$-1, %edi
	movl	%edi, 2416(%rsp,%r8,4)
	movl	$3833, 4268(%rsp)       # imm = 0xEF9
	movslq	%edi, %r8
	movl	%ecx, %edi
	movq	1352(%rsp), %r9         # 8-byte Reload
	movl	%edi, (%r9,%r8,4)
	movl	$3836, 4268(%rsp)       # imm = 0xEFC
	movq	%rcx, %r8
	orq	$1, %r8
	movb	(%rdx,%r8), %sil
	movl	$3839, 4268(%rsp)       # imm = 0xEFF
	movzbl	%sil, %edi
	movl	%edi, %r10d
	movl	2416(%rsp,%r10,4), %edi
	movl	$3841, 4268(%rsp)       # imm = 0xF01
	addl	$-1, %edi
	movl	%edi, 2416(%rsp,%r10,4)
	movl	$3845, 4268(%rsp)       # imm = 0xF05
	movslq	%edi, %r10
	movl	%r8d, %edi
	movl	%edi, (%r9,%r10,4)
	movl	$3852, 4268(%rsp)       # imm = 0xF0C
	addq	$2, %rcx
	addq	$-2, %rax
	cmpq	$0, %rax
	movq	%rcx, %r8
	movq	%rax, 1160(%rsp)        # 8-byte Spill
	movq	%r8, 1168(%rsp)         # 8-byte Spill
	movq	%rcx, 1176(%rsp)        # 8-byte Spill
	jne	.LBB19_15
.LBB19_16:                              # %for.end47.loopexit.unr-lcssa
	movq	1176(%rsp), %rax        # 8-byte Reload
	movq	1192(%rsp), %rcx        # 8-byte Reload
	cmpq	$0, %rcx
	movq	%rax, 1152(%rsp)        # 8-byte Spill
	je	.LBB19_18
# %bb.17:                               # %for.body35.epil
	movq	1376(%rsp), %rax        # 8-byte Reload
	movq	1152(%rsp), %rcx        # 8-byte Reload
	movb	(%rax,%rcx), %dl
	movl	$3855, 4268(%rsp)       # imm = 0xF0F
	movzbl	%dl, %esi
	movl	%esi, %edi
	movl	2416(%rsp,%rdi,4), %esi
	movl	$3857, 4268(%rsp)       # imm = 0xF11
	addl	$-1, %esi
	movl	%esi, 2416(%rsp,%rdi,4)
	movl	$3861, 4268(%rsp)       # imm = 0xF15
	movslq	%esi, %rdi
	movl	%ecx, %esi
	movq	1352(%rsp), %r8         # 8-byte Reload
	movl	%esi, (%r8,%rdi,4)
	movl	$3878, 4268(%rsp)       # imm = 0xF26
.LBB19_18:                              # %for.end47
	movl	1372(%rsp), %eax        # 4-byte Reload
	cmpl	$-64, %eax
	jle	.LBB19_20
# %bb.19:                               # %for.body52.lr.ph
	xorl	%eax, %eax
	movl	$32, %ecx
	movl	1372(%rsp), %edx        # 4-byte Reload
	movl	%eax, 1148(%rsp)        # 4-byte Spill
	movl	%edx, %eax
	cltd
	idivl	%ecx
	addl	$1, %eax
	cmpl	$0, %eax
	movl	1148(%rsp), %ecx        # 4-byte Reload
	cmovgl	%eax, %ecx
	movl	%ecx, %eax
	movl	%eax, %esi
	shlq	$2, %rsi
	addq	$4, %rsi
	movq	1336(%rsp), %rdi        # 8-byte Reload
	movl	1148(%rsp), %eax        # 4-byte Reload
	movq	%rsi, 1136(%rsp)        # 8-byte Spill
	movl	%eax, %esi
	movq	1136(%rsp), %r8         # 8-byte Reload
	movq	%r8, %rdx
	callq	memset
.LBB19_20:                              # %for.body61.preheader
	xorl	%eax, %eax
	movl	%eax, %ecx
	movq	%rcx, 1128(%rsp)        # 8-byte Spill
	jmp	.LBB19_21
.LBB19_21:                              # %for.body61
                                        # =>This Inner Loop Header: Depth=1
	movq	1128(%rsp), %rax        # 8-byte Reload
	movl	$1, %ecx
	movl	2416(%rsp,%rax,4), %edx
	movl	$3884, 4268(%rsp)       # imm = 0xF2C
	movl	%edx, %esi
	andl	$31, %esi
	movl	%ecx, 1124(%rsp)        # 4-byte Spill
	movl	%esi, %ecx
                                        # kill: def %cl killed %ecx
	movl	1124(%rsp), %esi        # 4-byte Reload
	shll	%cl, %esi
	sarl	$5, %edx
	movslq	%edx, %rdi
	movq	1360(%rsp), %r8         # 8-byte Reload
	movl	(%r8,%rdi,4), %edx
	movl	$3886, 4268(%rsp)       # imm = 0xF2E
	orl	%edx, %esi
	movl	%esi, (%r8,%rdi,4)
	movl	$3889, 4268(%rsp)       # imm = 0xF31
	movq	%rax, %rdi
	orq	$1, %rdi
	movl	2416(%rsp,%rdi,4), %edx
	movl	$3895, 4268(%rsp)       # imm = 0xF37
	movl	%edx, %esi
	andl	$31, %esi
	movl	%esi, %ecx
                                        # kill: def %cl killed %ecx
	movl	1124(%rsp), %esi        # 4-byte Reload
	shll	%cl, %esi
	sarl	$5, %edx
	movslq	%edx, %rdi
	movl	(%r8,%rdi,4), %edx
	movl	$3897, 4268(%rsp)       # imm = 0xF39
	orl	%edx, %esi
	movl	%esi, (%r8,%rdi,4)
	movl	$3910, 4268(%rsp)       # imm = 0xF46
	addq	$2, %rax
	cmpq	$256, %rax              # imm = 0x100
	movq	%rax, 1128(%rsp)        # 8-byte Spill
	jne	.LBB19_21
# %bb.22:                               # %for.body74.preheader
	xorl	%eax, %eax
	movl	%eax, 1120(%rsp)        # 4-byte Spill
	jmp	.LBB19_23
.LBB19_23:                              # %for.body74
                                        # =>This Inner Loop Header: Depth=1
	movl	1120(%rsp), %eax        # 4-byte Reload
	movl	$1, %ecx
	movl	%eax, %edx
	shll	$1, %edx
	movl	1372(%rsp), %esi        # 4-byte Reload
	addl	%esi, %edx
	movl	%edx, %edi
	andl	$31, %edi
	movl	%ecx, 1116(%rsp)        # 4-byte Spill
	movl	%edi, %ecx
                                        # kill: def %cl killed %ecx
	movl	1116(%rsp), %edi        # 4-byte Reload
	shll	%cl, %edi
	movl	%edx, %r8d
	sarl	$5, %r8d
	movslq	%r8d, %r9
	movq	1360(%rsp), %r10        # 8-byte Reload
